
zephyr.elf:     file format elf32-littleriscv


Disassembly of section rom_start:

1c010000 <__rom_start_address>:
	...

1c010200 <__start>:

.option norvc;

SECTION_FUNC(vectors, __start)
	/* Set mtvec to point at ivt. */
	la t0, ivt
1c010200:	00000297          	auipc	t0,0x0
1c010204:	10028293          	addi	t0,t0,256 # 1c010300 <ivt>
	csrw mtvec, t0
1c010208:	30529073          	csrw	mtvec,t0

	/*
	 * Initially, setup stack pointer to
	 * z_interrupt_stacks + __z_interrupt_stack_SIZEOF
	 */
	la sp, z_interrupt_stacks
1c01020c:	00006117          	auipc	sp,0x6
1c010210:	2e410113          	addi	sp,sp,740 # 1c0164f0 <z_interrupt_stacks>
	li t0, __z_interrupt_stack_SIZEOF
1c010214:	000012b7          	lui	t0,0x1
1c010218:	80028293          	addi	t0,t0,-2048 # 800 <CONFIG_ISR_STACK_SIZE>
	add sp, sp, t0
1c01021c:	00510133          	add	sp,sp,t0

	/*
	 * Jump into C domain. z_prep_c zeroes BSS, copies rw data into RAM,
	 * and then enters kernel z_cstart
	 */
	call z_prep_c
1c010220:	015010ef          	jal	ra,1c011a34 <z_prep_c>
	j .
1c010224:	0000006f          	j	1c010224 <__start+0x24>
1c010228:	00000013          	nop
1c01022c:	00000013          	nop
1c010230:	00000013          	nop
1c010234:	00000013          	nop
1c010238:	00000013          	nop
1c01023c:	00000013          	nop
1c010240:	00000013          	nop
1c010244:	00000013          	nop
1c010248:	00000013          	nop
1c01024c:	00000013          	nop
1c010250:	00000013          	nop
1c010254:	00000013          	nop
1c010258:	00000013          	nop
1c01025c:	00000013          	nop
1c010260:	00000013          	nop
1c010264:	00000013          	nop
1c010268:	00000013          	nop
1c01026c:	00000013          	nop
1c010270:	00000013          	nop
1c010274:	00000013          	nop
1c010278:	00000013          	nop
1c01027c:	00000013          	nop
1c010280:	00000013          	nop
1c010284:	00000013          	nop
1c010288:	00000013          	nop
1c01028c:	00000013          	nop
1c010290:	00000013          	nop
1c010294:	00000013          	nop
1c010298:	00000013          	nop
1c01029c:	00000013          	nop
1c0102a0:	00000013          	nop
1c0102a4:	00000013          	nop
1c0102a8:	00000013          	nop
1c0102ac:	00000013          	nop
1c0102b0:	00000013          	nop
1c0102b4:	00000013          	nop
1c0102b8:	00000013          	nop
1c0102bc:	00000013          	nop
1c0102c0:	00000013          	nop
1c0102c4:	00000013          	nop
1c0102c8:	00000013          	nop
1c0102cc:	00000013          	nop
1c0102d0:	00000013          	nop
1c0102d4:	00000013          	nop
1c0102d8:	00000013          	nop
1c0102dc:	00000013          	nop
1c0102e0:	00000013          	nop
1c0102e4:	00000013          	nop
1c0102e8:	00000013          	nop
1c0102ec:	00000013          	nop
1c0102f0:	00000013          	nop
1c0102f4:	00000013          	nop
1c0102f8:	00000013          	nop
1c0102fc:	00000013          	nop

1c010300 <ivt>:

	.balign 256
ivt:
	.rept 32
	jal zero, _isr_wrapper
	.endr
1c010300:	0dc0006f          	j	1c0103dc <_isr_wrapper>
1c010304:	0d80006f          	j	1c0103dc <_isr_wrapper>
1c010308:	0d40006f          	j	1c0103dc <_isr_wrapper>
1c01030c:	0d00006f          	j	1c0103dc <_isr_wrapper>
1c010310:	0cc0006f          	j	1c0103dc <_isr_wrapper>
1c010314:	0c80006f          	j	1c0103dc <_isr_wrapper>
1c010318:	0c40006f          	j	1c0103dc <_isr_wrapper>
1c01031c:	0c00006f          	j	1c0103dc <_isr_wrapper>
1c010320:	0bc0006f          	j	1c0103dc <_isr_wrapper>
1c010324:	0b80006f          	j	1c0103dc <_isr_wrapper>
1c010328:	0b40006f          	j	1c0103dc <_isr_wrapper>
1c01032c:	0b00006f          	j	1c0103dc <_isr_wrapper>
1c010330:	0ac0006f          	j	1c0103dc <_isr_wrapper>
1c010334:	0a80006f          	j	1c0103dc <_isr_wrapper>
1c010338:	0a40006f          	j	1c0103dc <_isr_wrapper>
1c01033c:	0a00006f          	j	1c0103dc <_isr_wrapper>
1c010340:	09c0006f          	j	1c0103dc <_isr_wrapper>
1c010344:	0980006f          	j	1c0103dc <_isr_wrapper>
1c010348:	0940006f          	j	1c0103dc <_isr_wrapper>
1c01034c:	0900006f          	j	1c0103dc <_isr_wrapper>
1c010350:	08c0006f          	j	1c0103dc <_isr_wrapper>
1c010354:	0880006f          	j	1c0103dc <_isr_wrapper>
1c010358:	0840006f          	j	1c0103dc <_isr_wrapper>
1c01035c:	0800006f          	j	1c0103dc <_isr_wrapper>
1c010360:	07c0006f          	j	1c0103dc <_isr_wrapper>
1c010364:	0780006f          	j	1c0103dc <_isr_wrapper>
1c010368:	0740006f          	j	1c0103dc <_isr_wrapper>
1c01036c:	0700006f          	j	1c0103dc <_isr_wrapper>
1c010370:	06c0006f          	j	1c0103dc <_isr_wrapper>
1c010374:	0680006f          	j	1c0103dc <_isr_wrapper>
1c010378:	0640006f          	j	1c0103dc <_isr_wrapper>
1c01037c:	0600006f          	j	1c0103dc <_isr_wrapper>
	...

Disassembly of section reset:

1c0103d8 <__reset>:
	/*
	 * jump to __initialize
	 * use call opcode in case __initialize is far away.
	 * This will be dependent on linker.ld configuration.
	 */
	call __initialize
1c0103d8:	2d41                	jal	1c010a68 <__initialize>
	...

Disassembly of section exceptions:

1c0103dc <_isr_wrapper>:

#ifdef CONFIG_RISCV_SOC_HAS_ISR_STACKING
	SOC_ISR_SW_STACKING
#else
	/* Save caller-saved registers on current thread stack. */
	addi sp, sp, -__struct_arch_esf_SIZEOF
1c0103dc:	7159                	addi	sp,sp,-112
	DO_CALLER_SAVED(sr)		;
1c0103de:	c216                	sw	t0,4(sp)
1c0103e0:	c41a                	sw	t1,8(sp)
1c0103e2:	c61e                	sw	t2,12(sp)
1c0103e4:	c872                	sw	t3,16(sp)
1c0103e6:	ca76                	sw	t4,20(sp)
1c0103e8:	cc7a                	sw	t5,24(sp)
1c0103ea:	ce7e                	sw	t6,28(sp)
1c0103ec:	d02a                	sw	a0,32(sp)
1c0103ee:	d22e                	sw	a1,36(sp)
1c0103f0:	d432                	sw	a2,40(sp)
1c0103f2:	d636                	sw	a3,44(sp)
1c0103f4:	d83a                	sw	a4,48(sp)
1c0103f6:	da3e                	sw	a5,52(sp)
1c0103f8:	dc42                	sw	a6,56(sp)
1c0103fa:	de46                	sw	a7,60(sp)
1c0103fc:	c006                	sw	ra,0(sp)
#endif /* CONFIG_RISCV_SOC_HAS_ISR_STACKING */

	/* Save s0 in the esf and load it with &_current_cpu. */
	sr s0, __struct_arch_esf_s0_OFFSET(sp)
1c0103fe:	c4a2                	sw	s0,72(sp)
	get_current_cpu s0
1c010400:	00006417          	auipc	s0,0x6
1c010404:	0cc40413          	addi	s0,s0,204 # 1c0164cc <_kernel>
	csrr t0, mcause
	sr t0, __struct_arch_esf_mcause_OFFSET(sp)
#endif /* CONFIG_CLIC_SUPPORT_INTERRUPT_LEVEL */

	/* Save MEPC register */
	csrr t0, mepc
1c010408:	341022f3          	csrr	t0,mepc
	sr t0, __struct_arch_esf_mepc_OFFSET(sp)
1c01040c:	c096                	sw	t0,64(sp)

	/* Save MSTATUS register */
	csrr t2, mstatus
1c01040e:	300023f3          	csrr	t2,mstatus
	sr t2, __struct_arch_esf_mstatus_OFFSET(sp)
1c010412:	c29e                	sw	t2,68(sp)
	call z_riscv_fpu_enter_exc
#endif /* CONFIG_FPU_SHARING */

#ifdef CONFIG_RISCV_SOC_CONTEXT_SAVE
	/* Handle context saving at SOC level. */
	addi a0, sp, __struct_arch_esf_soc_context_OFFSET
1c010414:	00e8                	addi	a0,sp,76
	jal ra, __soc_save_context
1c010416:	116000ef          	jal	ra,1c01052c <__soc_save_context>

#ifdef CONFIG_RISCV_SOC_EXCEPTION_FROM_IRQ
	jal ra, __soc_is_irq
	bnez a0, is_interrupt
#else
	csrr t0, mcause
1c01041a:	342022f3          	csrr	t0,mcause
	srli t0, t0, RISCV_MCAUSE_IRQ_POS
1c01041e:	01f2d293          	srli	t0,t0,0x1f
	bnez t0, is_interrupt
1c010422:	04029e63          	bnez	t0,1c01047e <is_interrupt>
	/*
	 * If the exception is the result of an ECALL, check whether to
	 * perform a context-switch or an IRQ offload. Otherwise call z_riscv_fault
	 * to report the exception.
	 */
	csrr t0, mcause
1c010426:	342022f3          	csrr	t0,mcause
	li t2, CONFIG_RISCV_MCAUSE_EXCEPTION_MASK
1c01042a:	800003b7          	lui	t2,0x80000
1c01042e:	13fd                	addi	t2,t2,-1 # 7fffffff <CONFIG_COMMON_LIBC_MALLOC_ARENA_SIZE+0x80000000>
	and t0, t0, t2
1c010430:	0072f2b3          	and	t0,t0,t2

	/*
	 * If mcause == RISCV_EXC_ECALLM, handle system call from
	 * kernel thread.
	 */
	li t1, RISCV_EXC_ECALLM
1c010434:	432d                	li	t1,11
	beq t0, t1, is_kernel_syscall
1c010436:	00628963          	beq	t0,t1,1c010448 <is_kernel_syscall>
	 * Stack pointer is pointing to a struct_arch_esf structure, pass it
	 * to z_riscv_fault (via register a0).
	 * If z_riscv_fault shall return, set return address to
	 * no_reschedule to restore stack.
	 */
	mv a0, sp
1c01043a:	850a                	mv	a0,sp
	la ra, no_reschedule
1c01043c:	00000097          	auipc	ra,0x0
1c010440:	0b408093          	addi	ra,ra,180 # 1c0104f0 <no_reschedule>
	tail z_riscv_fault
1c010444:	5c60106f          	j	1c011a0a <z_riscv_fault>

1c010448 <is_kernel_syscall>:
	 * again upon exiting the ISR.
	 *
	 * It's safe to always increment by 4, even with compressed
	 * instructions, because the ecall instruction is always 4 bytes.
	 */
	lr t0, __struct_arch_esf_mepc_OFFSET(sp)
1c010448:	4286                	lw	t0,64(sp)
	addi t0, t0, 4
1c01044a:	0291                	addi	t0,t0,4
	sr t0, __struct_arch_esf_mepc_OFFSET(sp)
1c01044c:	c096                	sw	t0,64(sp)
	li t1, MSTATUS_MPRV
	csrs mstatus, t1
#endif

	/* Determine what to do. Operation code is in t0. */
	lr t0, __struct_arch_esf_t0_OFFSET(sp)
1c01044e:	4292                	lw	t0,4(sp)

	.if RV_ECALL_RUNTIME_EXCEPT != 0; .err; .endif
	beqz t0, do_fault
1c010450:	00028463          	beqz	t0,1c010458 <do_fault>
	j reschedule
skip_schedule:
#endif

	/* default fault code is K_ERR_KERNEL_OOPS */
	li a0, 3
1c010454:	450d                	li	a0,3
	j 1f
1c010456:	a011                	j	1c01045a <do_fault+0x2>

1c010458 <do_fault>:

do_fault:
	/* Handle RV_ECALL_RUNTIME_EXCEPT. Retrieve reason in a0, esf in A1. */
	lr a0, __struct_arch_esf_a0_OFFSET(sp)
1c010458:	5502                	lw	a0,32(sp)
1:	mv a1, sp
1c01045a:	858a                	mv	a1,sp
#ifdef CONFIG_EXCEPTION_DEBUG
	/*
	 * Restore the s0 we saved early in ISR entry
	 * so it shows up properly in the CSF.
	 */
	lr s0, __struct_arch_esf_s0_OFFSET(sp)
1c01045c:	4426                	lw	s0,72(sp)

	/* Allocate space for caller-saved registers on current thread stack */
	addi sp, sp, -__callee_saved_t_SIZEOF
1c01045e:	7139                	addi	sp,sp,-64

	/* Save callee-saved registers to be passed as 3rd arg */
	STORE_CALLEE_SAVED()		;
1c010460:	c422                	sw	s0,8(sp)
1c010462:	c626                	sw	s1,12(sp)
1c010464:	c84a                	sw	s2,16(sp)
1c010466:	ca4e                	sw	s3,20(sp)
1c010468:	cc52                	sw	s4,24(sp)
1c01046a:	ce56                	sw	s5,28(sp)
1c01046c:	d05a                	sw	s6,32(sp)
1c01046e:	d25e                	sw	s7,36(sp)
1c010470:	d462                	sw	s8,40(sp)
1c010472:	d666                	sw	s9,44(sp)
1c010474:	d86a                	sw	s10,48(sp)
1c010476:	da6e                	sw	s11,52(sp)
	mv a2, sp
1c010478:	860a                	mv	a2,sp
#ifdef CONFIG_EXTRA_EXCEPTION_INFO
	/* Store csf's addr into esf (a1 still holds the pointer to the esf at this point) */
	sr a2 __struct_arch_esf_csf_OFFSET(a1)
#endif /* CONFIG_EXTRA_EXCEPTION_INFO */

	tail z_riscv_fatal_error_csf
1c01047a:	3c00106f          	j	1c01183a <z_riscv_fatal_error_csf>

1c01047e <is_interrupt>:
	csrs mstatus, t1
2:
#endif

	/* Increment _current_cpu->nested */
	lw t1, ___cpu_t_nested_OFFSET(s0)
1c01047e:	00042303          	lw	t1,0(s0)
	addi t2, t1, 1
1c010482:	00130393          	addi	t2,t1,1
	sw t2, ___cpu_t_nested_OFFSET(s0)
1c010486:	00742023          	sw	t2,0(s0)
	bnez t1, on_irq_stack
1c01048a:	00031763          	bnez	t1,1c010498 <on_irq_stack>

	/* Switch to interrupt stack */
	mv t0, sp
1c01048e:	828a                	mv	t0,sp
	lr sp, ___cpu_t_irq_stack_OFFSET(s0)
1c010490:	00442103          	lw	sp,4(s0)

	/*
	 * Save thread stack pointer on interrupt stack
	 * In RISC-V, stack pointer needs to be 16-byte aligned
	 */
	addi sp, sp, -16
1c010494:	1141                	addi	sp,sp,-16
	sr t0, 0(sp)
1c010496:	c016                	sw	t0,0(sp)

1c010498 <on_irq_stack>:
#ifdef CONFIG_TRACING_ISR
	call sys_trace_isr_enter
#endif

	/* Get IRQ causing interrupt */
	csrr a0, mcause
1c010498:	34202573          	csrr	a0,mcause
	li t0, CONFIG_RISCV_MCAUSE_EXCEPTION_MASK
1c01049c:	800002b7          	lui	t0,0x80000
1c0104a0:	12fd                	addi	t0,t0,-1 # 7fffffff <CONFIG_COMMON_LIBC_MALLOC_ARENA_SIZE+0x80000000>
	and a0, a0, t0
1c0104a2:	00557533          	and	a0,a0,t0

	/*
	 * Clear pending IRQ generating the interrupt at SOC level
	 * Pass IRQ number to __soc_handle_irq via register a0
	 */
	jal ra, __soc_handle_irq
1c0104a6:	0f6000ef          	jal	ra,1c01059c <__soc_handle_irq>
#if defined CONFIG_GEN_SW_ISR_TABLE
	/*
	 * Call corresponding registered function in _sw_isr_table.
	 * (table is 2-word wide, we should shift index accordingly)
	 */
	la t0, _sw_isr_table
1c0104aa:	00004297          	auipc	t0,0x4
1c0104ae:	29e28293          	addi	t0,t0,670 # 1c014748 <_sw_isr_table>
	slli a0, a0, (RV_REGSHIFT + 1)
1c0104b2:	050e                	slli	a0,a0,0x3
	add t0, t0, a0
1c0104b4:	92aa                	add	t0,t0,a0

	/* Load argument in a0 register */
	lr a0, 0(t0)
1c0104b6:	0002a503          	lw	a0,0(t0)

	/* Load ISR function address in register t1 */
	lr t1, RV_REGSIZE(t0)
1c0104ba:	0042a303          	lw	t1,4(t0)
	/* NULL as parameter */
	li a0, 0
#endif

	/* Call ISR function */
	jalr ra, t1, 0
1c0104be:	000300e7          	jalr	t1

1c0104c2 <irq_done>:

#endif

irq_done:
	/* Decrement _current_cpu->nested */
	lw t2, ___cpu_t_nested_OFFSET(s0)
1c0104c2:	00042383          	lw	t2,0(s0)
	addi t2, t2, -1
1c0104c6:	13fd                	addi	t2,t2,-1
	sw t2, ___cpu_t_nested_OFFSET(s0)
1c0104c8:	00742023          	sw	t2,0(s0)
	bnez t2, no_reschedule
1c0104cc:	02039263          	bnez	t2,1c0104f0 <no_reschedule>

	/* nested count is back to 0: Return to thread stack */
	lr sp, 0(sp)
1c0104d0:	4102                	lw	sp,0(sp)

1c0104d2 <check_reschedule>:
check_reschedule:

#ifdef CONFIG_MULTITHREADING

	/* Get pointer to current thread on this CPU */
	lr a1, ___cpu_t_current_OFFSET(s0)
1c0104d2:	440c                	lw	a1,8(s0)
	/*
	 * Get next thread to schedule with z_get_next_switch_handle().
	 * We pass it a NULL as we didn't save the whole thread context yet.
	 * If no scheduling is necessary then NULL will be returned.
	 */
	addi sp, sp, -16
1c0104d4:	1141                	addi	sp,sp,-16
	sr a1, 0(sp)
1c0104d6:	c02e                	sw	a1,0(sp)
	mv a0, zero
1c0104d8:	00000513          	li	a0,0
	call z_get_next_switch_handle
1c0104dc:	033030ef          	jal	ra,1c013d0e <z_get_next_switch_handle>
	lr a1, 0(sp)
1c0104e0:	4582                	lw	a1,0(sp)
	addi sp, sp, 16
1c0104e2:	0141                	addi	sp,sp,16
	beqz a0, no_reschedule
1c0104e4:	c511                	beqz	a0,1c0104f0 <no_reschedule>

1c0104e6 <reschedule>:
	/*
	 * Perform context switch:
	 * a0 = new thread
	 * a1 = old thread
	 */
	call z_riscv_switch
1c0104e6:	237d                	jal	1c010a94 <z_riscv_switch>

1c0104e8 <z_riscv_thread_start>:

z_riscv_thread_start:
might_have_rescheduled:
	/* reload s0 with &_current_cpu as it might have changed or be unset */
	get_current_cpu s0
1c0104e8:	00006417          	auipc	s0,0x6
1c0104ec:	fe440413          	addi	s0,s0,-28 # 1c0164cc <_kernel>

1c0104f0 <no_reschedule>:

no_reschedule:

#ifdef CONFIG_RISCV_SOC_CONTEXT_SAVE
	/* Restore context at SOC level */
	addi a0, sp, __struct_arch_esf_soc_context_OFFSET
1c0104f0:	00e8                	addi	a0,sp,76
	jal ra, __soc_restore_context
1c0104f2:	072000ef          	jal	ra,1c010564 <__soc_restore_context>
	sb t1, _thread_offset_to_exception_depth(t0)
fp_trap_exit:
#endif

	/* Restore MEPC and MSTATUS registers */
	lr t0, __struct_arch_esf_mepc_OFFSET(sp)
1c0104f6:	4286                	lw	t0,64(sp)
	lr t2, __struct_arch_esf_mstatus_OFFSET(sp)
1c0104f8:	4396                	lw	t2,68(sp)
	/* Restore MCAUSE register for previous interrupt level. */
	lr t1, __struct_arch_esf_mcause_OFFSET(sp)
	csrw mcause, t1
#endif /* CONFIG_CLIC_SUPPORT_INTERRUPT_LEVEL */

	csrw mepc, t0
1c0104fa:	34129073          	csrw	mepc,t0
	csrw mstatus, t2
1c0104fe:	30039073          	csrw	mstatus,t2
	sr t0, __struct_arch_esf_sp_OFFSET(sp)
2:
#endif

	/* Restore s0 (it is no longer ours) */
	lr s0, __struct_arch_esf_s0_OFFSET(sp)
1c010502:	4426                	lw	s0,72(sp)

#ifdef CONFIG_RISCV_SOC_HAS_ISR_STACKING
	SOC_ISR_SW_UNSTACKING
#else
	/* Restore caller-saved registers from thread stack */
	DO_CALLER_SAVED(lr)
1c010504:	4292                	lw	t0,4(sp)
1c010506:	4322                	lw	t1,8(sp)
1c010508:	43b2                	lw	t2,12(sp)
1c01050a:	4e42                	lw	t3,16(sp)
1c01050c:	4ed2                	lw	t4,20(sp)
1c01050e:	4f62                	lw	t5,24(sp)
1c010510:	4ff2                	lw	t6,28(sp)
1c010512:	5502                	lw	a0,32(sp)
1c010514:	5592                	lw	a1,36(sp)
1c010516:	5622                	lw	a2,40(sp)
1c010518:	56b2                	lw	a3,44(sp)
1c01051a:	5742                	lw	a4,48(sp)
1c01051c:	57d2                	lw	a5,52(sp)
1c01051e:	5862                	lw	a6,56(sp)
1c010520:	58f2                	lw	a7,60(sp)
1c010522:	4082                	lw	ra,0(sp)
#ifdef CONFIG_USERSPACE
	/* retrieve saved stack pointer */
	lr sp, __struct_arch_esf_sp_OFFSET(sp)
#else
	/* remove esf from the stack */
	addi sp, sp, __struct_arch_esf_SIZEOF
1c010524:	6165                	addi	sp,sp,112
#endif

#endif /* CONFIG_RISCV_SOC_HAS_ISR_STACKING */

	mret
1c010526:	30200073          	mret
	...

1c01052c <__soc_save_context>:
 *
 * For details, see the Kconfig help for CONFIG_RISCV_SOC_CONTEXT_SAVE.
 */
SECTION_FUNC(exception.other, __soc_save_context)
	/* Save hardware loop registers to the soc_esf_t passed in a0. */
	csrr t0, PULP_LPSTART0
1c01052c:	7b0022f3          	csrr	t0,dcsr
	csrr t1, PULP_LPEND0
1c010530:	7b102373          	csrr	t1,dpc
	csrr t2, PULP_LPCOUNT0
1c010534:	7b2023f3          	csrr	t2,dscratch0
	sw t0, __soc_esf_t_lpstart0_OFFSET(a0)
1c010538:	00552023          	sw	t0,0(a0)
	sw t1, __soc_esf_t_lpend0_OFFSET(a0)
1c01053c:	00652223          	sw	t1,4(a0)
	sw t2, __soc_esf_t_lpcount0_OFFSET(a0)
1c010540:	00752423          	sw	t2,8(a0)
	csrr t0, PULP_LPSTART1
1c010544:	7b4022f3          	csrr	t0,0x7b4
	csrr t1, PULP_LPEND1
1c010548:	7b502373          	csrr	t1,0x7b5
	csrr t2, PULP_LPCOUNT1
1c01054c:	7b6023f3          	csrr	t2,0x7b6
	sw t0, __soc_esf_t_lpstart1_OFFSET(a0)
1c010550:	00552623          	sw	t0,12(a0)
	sw t1, __soc_esf_t_lpend1_OFFSET(a0)
1c010554:	00652823          	sw	t1,16(a0)
	sw t2, __soc_esf_t_lpcount1_OFFSET(a0)
1c010558:	00752a23          	sw	t2,20(a0)

	/* Return */
	jalr x0, ra
1c01055c:	00008067          	ret
1c010560:	0000                	unimp
	...

1c010564 <__soc_restore_context>:


SECTION_FUNC(exception.other, __soc_restore_context)
	/* Restore hardware loop registers from soc_esf_t in a0. */
	lw t0, __soc_esf_t_lpstart0_OFFSET(a0)
1c010564:	00052283          	lw	t0,0(a0)
	lw t1, __soc_esf_t_lpend0_OFFSET(a0)
1c010568:	00452303          	lw	t1,4(a0)
	lw t2, __soc_esf_t_lpcount0_OFFSET(a0)
1c01056c:	00852383          	lw	t2,8(a0)
	csrw PULP_LPSTART0, t0
1c010570:	7b029073          	csrw	dcsr,t0
	csrw PULP_LPEND0, t1
1c010574:	7b131073          	csrw	dpc,t1
	csrw PULP_LPCOUNT0, t2
1c010578:	7b239073          	csrw	dscratch0,t2
	lw t0, __soc_esf_t_lpstart1_OFFSET(a0)
1c01057c:	00c52283          	lw	t0,12(a0)
	lw t1, __soc_esf_t_lpend1_OFFSET(a0)
1c010580:	01052303          	lw	t1,16(a0)
	lw t2, __soc_esf_t_lpcount1_OFFSET(a0)
1c010584:	01452383          	lw	t2,20(a0)
	csrw PULP_LPSTART1, t0
1c010588:	7b429073          	csrw	0x7b4,t0
	csrw PULP_LPEND1, t1
1c01058c:	7b531073          	csrw	0x7b5,t1
	csrw PULP_LPCOUNT1, t2
1c010590:	7b639073          	csrw	0x7b6,t2

	/* Return */
	jalr x0, ra
1c010594:	00008067          	ret
1c010598:	0000                	unimp
	...

1c01059c <__soc_handle_irq>:
 *
 * Exception number is given as parameter via register a0.
 */
SECTION_FUNC(exception.other, __soc_handle_irq)
	/* Clear exception number from the Interrupt pending register */
	li t1, PULP_IRQ_ACK_CLR_REG
1c01059c:	1a109337          	lui	t1,0x1a109
1c0105a0:	02030313          	addi	t1,t1,32 # 1a109020 <CONFIG_TIMER_RANDOM_INITIAL_STATE+0x12b4c30b>
	li t2, 1
1c0105a4:	4385                	li	t2,1
	sll t3, t2, a0
1c0105a6:	00a39e33          	sll	t3,t2,a0
	sw t3, 0x00(t1)
1c0105aa:	01c32023          	sw	t3,0(t1)
	ret
1c0105ae:	8082                	ret
	...

Disassembly of section text:

1c0105b4 <__ashldi3>:
1c0105b4:	02060063          	beqz	a2,1c0105d4 <__ashldi3+0x20>
1c0105b8:	02000793          	li	a5,32
1c0105bc:	40c787b3          	sub	a5,a5,a2
1c0105c0:	00f04c63          	bgtz	a5,1c0105d8 <__ashldi3+0x24>
1c0105c4:	fe060613          	addi	a2,a2,-32
1c0105c8:	00c515b3          	sll	a1,a0,a2
1c0105cc:	00000713          	li	a4,0
1c0105d0:	00070513          	mv	a0,a4
1c0105d4:	00008067          	ret
1c0105d8:	00c51733          	sll	a4,a0,a2
1c0105dc:	00c595b3          	sll	a1,a1,a2
1c0105e0:	00f55533          	srl	a0,a0,a5
1c0105e4:	00a5e5b3          	or	a1,a1,a0
1c0105e8:	fe9ff06f          	j	1c0105d0 <__ashldi3+0x1c>

1c0105ec <__clzsi2>:
1c0105ec:	000107b7          	lui	a5,0x10
1c0105f0:	02f57a63          	bgeu	a0,a5,1c010624 <__clzsi2+0x38>
1c0105f4:	10053793          	sltiu	a5,a0,256
1c0105f8:	0017c793          	xori	a5,a5,1
1c0105fc:	00379793          	slli	a5,a5,0x3
1c010600:	1c015737          	lui	a4,0x1c015
1c010604:	02000693          	li	a3,32
1c010608:	40f686b3          	sub	a3,a3,a5
1c01060c:	00f55533          	srl	a0,a0,a5
1c010610:	93470793          	addi	a5,a4,-1740 # 1c014934 <__clz_tab>
1c010614:	00a787b3          	add	a5,a5,a0
1c010618:	0007c503          	lbu	a0,0(a5) # 10000 <CONFIG_SPI_NOR_FLASH_LAYOUT_PAGE_SIZE>
1c01061c:	40a68533          	sub	a0,a3,a0
1c010620:	00008067          	ret
1c010624:	01000737          	lui	a4,0x1000
1c010628:	01000793          	li	a5,16
1c01062c:	fce56ae3          	bltu	a0,a4,1c010600 <__clzsi2+0x14>
1c010630:	01800793          	li	a5,24
1c010634:	fcdff06f          	j	1c010600 <__clzsi2+0x14>

1c010638 <__udivdi3>:
1c010638:	00050893          	mv	a7,a0
1c01063c:	00058313          	mv	t1,a1
1c010640:	00060713          	mv	a4,a2
1c010644:	00050813          	mv	a6,a0
1c010648:	00058793          	mv	a5,a1
1c01064c:	28069263          	bnez	a3,1c0108d0 <__udivdi3+0x298>
1c010650:	1c0155b7          	lui	a1,0x1c015
1c010654:	93458593          	addi	a1,a1,-1740 # 1c014934 <__clz_tab>
1c010658:	0ec37663          	bgeu	t1,a2,1c010744 <__udivdi3+0x10c>
1c01065c:	000106b7          	lui	a3,0x10
1c010660:	0cd67863          	bgeu	a2,a3,1c010730 <__udivdi3+0xf8>
1c010664:	10063693          	sltiu	a3,a2,256
1c010668:	0016c693          	xori	a3,a3,1
1c01066c:	00369693          	slli	a3,a3,0x3
1c010670:	00d65533          	srl	a0,a2,a3
1c010674:	00a585b3          	add	a1,a1,a0
1c010678:	0005c583          	lbu	a1,0(a1)
1c01067c:	02000513          	li	a0,32
1c010680:	00d586b3          	add	a3,a1,a3
1c010684:	40d505b3          	sub	a1,a0,a3
1c010688:	00d50c63          	beq	a0,a3,1c0106a0 <__udivdi3+0x68>
1c01068c:	00b317b3          	sll	a5,t1,a1
1c010690:	00d8d6b3          	srl	a3,a7,a3
1c010694:	00b61733          	sll	a4,a2,a1
1c010698:	00f6e7b3          	or	a5,a3,a5
1c01069c:	00b89833          	sll	a6,a7,a1
1c0106a0:	01075593          	srli	a1,a4,0x10
1c0106a4:	02b7d333          	divu	t1,a5,a1
1c0106a8:	01071613          	slli	a2,a4,0x10
1c0106ac:	01065613          	srli	a2,a2,0x10
1c0106b0:	02b7f7b3          	remu	a5,a5,a1
1c0106b4:	00030513          	mv	a0,t1
1c0106b8:	026608b3          	mul	a7,a2,t1
1c0106bc:	01079693          	slli	a3,a5,0x10
1c0106c0:	01085793          	srli	a5,a6,0x10
1c0106c4:	00d7e7b3          	or	a5,a5,a3
1c0106c8:	0117fe63          	bgeu	a5,a7,1c0106e4 <__udivdi3+0xac>
1c0106cc:	00f707b3          	add	a5,a4,a5
1c0106d0:	fff30513          	addi	a0,t1,-1
1c0106d4:	00e7e863          	bltu	a5,a4,1c0106e4 <__udivdi3+0xac>
1c0106d8:	0117f663          	bgeu	a5,a7,1c0106e4 <__udivdi3+0xac>
1c0106dc:	ffe30513          	addi	a0,t1,-2
1c0106e0:	00e787b3          	add	a5,a5,a4
1c0106e4:	411787b3          	sub	a5,a5,a7
1c0106e8:	02b7d8b3          	divu	a7,a5,a1
1c0106ec:	01081813          	slli	a6,a6,0x10
1c0106f0:	01085813          	srli	a6,a6,0x10
1c0106f4:	02b7f7b3          	remu	a5,a5,a1
1c0106f8:	031606b3          	mul	a3,a2,a7
1c0106fc:	01079793          	slli	a5,a5,0x10
1c010700:	00f86833          	or	a6,a6,a5
1c010704:	00088793          	mv	a5,a7
1c010708:	00d87c63          	bgeu	a6,a3,1c010720 <__udivdi3+0xe8>
1c01070c:	01070833          	add	a6,a4,a6
1c010710:	fff88793          	addi	a5,a7,-1
1c010714:	00e86663          	bltu	a6,a4,1c010720 <__udivdi3+0xe8>
1c010718:	00d87463          	bgeu	a6,a3,1c010720 <__udivdi3+0xe8>
1c01071c:	ffe88793          	addi	a5,a7,-2
1c010720:	01051513          	slli	a0,a0,0x10
1c010724:	00f56533          	or	a0,a0,a5
1c010728:	00000593          	li	a1,0
1c01072c:	00008067          	ret
1c010730:	01000537          	lui	a0,0x1000
1c010734:	01000693          	li	a3,16
1c010738:	f2a66ce3          	bltu	a2,a0,1c010670 <__udivdi3+0x38>
1c01073c:	01800693          	li	a3,24
1c010740:	f31ff06f          	j	1c010670 <__udivdi3+0x38>
1c010744:	00000693          	li	a3,0
1c010748:	00060c63          	beqz	a2,1c010760 <__udivdi3+0x128>
1c01074c:	000107b7          	lui	a5,0x10
1c010750:	0cf67063          	bgeu	a2,a5,1c010810 <__udivdi3+0x1d8>
1c010754:	10063693          	sltiu	a3,a2,256
1c010758:	0016c693          	xori	a3,a3,1
1c01075c:	00369693          	slli	a3,a3,0x3
1c010760:	00d657b3          	srl	a5,a2,a3
1c010764:	00f585b3          	add	a1,a1,a5
1c010768:	0005c783          	lbu	a5,0(a1)
1c01076c:	00d787b3          	add	a5,a5,a3
1c010770:	02000693          	li	a3,32
1c010774:	40f685b3          	sub	a1,a3,a5
1c010778:	0af69663          	bne	a3,a5,1c010824 <__udivdi3+0x1ec>
1c01077c:	40c307b3          	sub	a5,t1,a2
1c010780:	00100593          	li	a1,1
1c010784:	01075893          	srli	a7,a4,0x10
1c010788:	0317de33          	divu	t3,a5,a7
1c01078c:	01071613          	slli	a2,a4,0x10
1c010790:	01065613          	srli	a2,a2,0x10
1c010794:	01085693          	srli	a3,a6,0x10
1c010798:	0317f7b3          	remu	a5,a5,a7
1c01079c:	000e0513          	mv	a0,t3
1c0107a0:	03c60333          	mul	t1,a2,t3
1c0107a4:	01079793          	slli	a5,a5,0x10
1c0107a8:	00f6e7b3          	or	a5,a3,a5
1c0107ac:	0067fe63          	bgeu	a5,t1,1c0107c8 <__udivdi3+0x190>
1c0107b0:	00f707b3          	add	a5,a4,a5
1c0107b4:	fffe0513          	addi	a0,t3,-1
1c0107b8:	00e7e863          	bltu	a5,a4,1c0107c8 <__udivdi3+0x190>
1c0107bc:	0067f663          	bgeu	a5,t1,1c0107c8 <__udivdi3+0x190>
1c0107c0:	ffee0513          	addi	a0,t3,-2
1c0107c4:	00e787b3          	add	a5,a5,a4
1c0107c8:	406787b3          	sub	a5,a5,t1
1c0107cc:	0317d333          	divu	t1,a5,a7
1c0107d0:	01081813          	slli	a6,a6,0x10
1c0107d4:	01085813          	srli	a6,a6,0x10
1c0107d8:	0317f7b3          	remu	a5,a5,a7
1c0107dc:	026606b3          	mul	a3,a2,t1
1c0107e0:	01079793          	slli	a5,a5,0x10
1c0107e4:	00f86833          	or	a6,a6,a5
1c0107e8:	00030793          	mv	a5,t1
1c0107ec:	00d87c63          	bgeu	a6,a3,1c010804 <__udivdi3+0x1cc>
1c0107f0:	01070833          	add	a6,a4,a6
1c0107f4:	fff30793          	addi	a5,t1,-1
1c0107f8:	00e86663          	bltu	a6,a4,1c010804 <__udivdi3+0x1cc>
1c0107fc:	00d87463          	bgeu	a6,a3,1c010804 <__udivdi3+0x1cc>
1c010800:	ffe30793          	addi	a5,t1,-2
1c010804:	01051513          	slli	a0,a0,0x10
1c010808:	00f56533          	or	a0,a0,a5
1c01080c:	00008067          	ret
1c010810:	010007b7          	lui	a5,0x1000
1c010814:	01000693          	li	a3,16
1c010818:	f4f664e3          	bltu	a2,a5,1c010760 <__udivdi3+0x128>
1c01081c:	01800693          	li	a3,24
1c010820:	f41ff06f          	j	1c010760 <__udivdi3+0x128>
1c010824:	00b61733          	sll	a4,a2,a1
1c010828:	00f356b3          	srl	a3,t1,a5
1c01082c:	01075513          	srli	a0,a4,0x10
1c010830:	00b31333          	sll	t1,t1,a1
1c010834:	00f8d7b3          	srl	a5,a7,a5
1c010838:	0067e7b3          	or	a5,a5,t1
1c01083c:	02a6d333          	divu	t1,a3,a0
1c010840:	01071613          	slli	a2,a4,0x10
1c010844:	01065613          	srli	a2,a2,0x10
1c010848:	00b89833          	sll	a6,a7,a1
1c01084c:	02a6f6b3          	remu	a3,a3,a0
1c010850:	026608b3          	mul	a7,a2,t1
1c010854:	01069593          	slli	a1,a3,0x10
1c010858:	0107d693          	srli	a3,a5,0x10
1c01085c:	00b6e6b3          	or	a3,a3,a1
1c010860:	00030593          	mv	a1,t1
1c010864:	0116fe63          	bgeu	a3,a7,1c010880 <__udivdi3+0x248>
1c010868:	00d706b3          	add	a3,a4,a3
1c01086c:	fff30593          	addi	a1,t1,-1
1c010870:	00e6e863          	bltu	a3,a4,1c010880 <__udivdi3+0x248>
1c010874:	0116f663          	bgeu	a3,a7,1c010880 <__udivdi3+0x248>
1c010878:	ffe30593          	addi	a1,t1,-2
1c01087c:	00e686b3          	add	a3,a3,a4
1c010880:	411686b3          	sub	a3,a3,a7
1c010884:	02a6d8b3          	divu	a7,a3,a0
1c010888:	01079793          	slli	a5,a5,0x10
1c01088c:	0107d793          	srli	a5,a5,0x10
1c010890:	02a6f6b3          	remu	a3,a3,a0
1c010894:	03160633          	mul	a2,a2,a7
1c010898:	01069693          	slli	a3,a3,0x10
1c01089c:	00d7e7b3          	or	a5,a5,a3
1c0108a0:	00088693          	mv	a3,a7
1c0108a4:	00c7fe63          	bgeu	a5,a2,1c0108c0 <__udivdi3+0x288>
1c0108a8:	00f707b3          	add	a5,a4,a5
1c0108ac:	fff88693          	addi	a3,a7,-1
1c0108b0:	00e7e863          	bltu	a5,a4,1c0108c0 <__udivdi3+0x288>
1c0108b4:	00c7f663          	bgeu	a5,a2,1c0108c0 <__udivdi3+0x288>
1c0108b8:	ffe88693          	addi	a3,a7,-2
1c0108bc:	00e787b3          	add	a5,a5,a4
1c0108c0:	01059593          	slli	a1,a1,0x10
1c0108c4:	40c787b3          	sub	a5,a5,a2
1c0108c8:	00d5e5b3          	or	a1,a1,a3
1c0108cc:	eb9ff06f          	j	1c010784 <__udivdi3+0x14c>
1c0108d0:	18d5e663          	bltu	a1,a3,1c010a5c <__udivdi3+0x424>
1c0108d4:	000107b7          	lui	a5,0x10
1c0108d8:	04f6f463          	bgeu	a3,a5,1c010920 <__udivdi3+0x2e8>
1c0108dc:	1006b713          	sltiu	a4,a3,256
1c0108e0:	00174713          	xori	a4,a4,1
1c0108e4:	00371713          	slli	a4,a4,0x3
1c0108e8:	1c0157b7          	lui	a5,0x1c015
1c0108ec:	00e6d5b3          	srl	a1,a3,a4
1c0108f0:	93478793          	addi	a5,a5,-1740 # 1c014934 <__clz_tab>
1c0108f4:	00b787b3          	add	a5,a5,a1
1c0108f8:	0007c783          	lbu	a5,0(a5)
1c0108fc:	00e787b3          	add	a5,a5,a4
1c010900:	02000713          	li	a4,32
1c010904:	40f705b3          	sub	a1,a4,a5
1c010908:	02f71663          	bne	a4,a5,1c010934 <__udivdi3+0x2fc>
1c01090c:	00100513          	li	a0,1
1c010910:	e066eee3          	bltu	a3,t1,1c01072c <__udivdi3+0xf4>
1c010914:	00c8b533          	sltu	a0,a7,a2
1c010918:	00154513          	xori	a0,a0,1
1c01091c:	00008067          	ret
1c010920:	010007b7          	lui	a5,0x1000
1c010924:	01000713          	li	a4,16
1c010928:	fcf6e0e3          	bltu	a3,a5,1c0108e8 <__udivdi3+0x2b0>
1c01092c:	01800713          	li	a4,24
1c010930:	fb9ff06f          	j	1c0108e8 <__udivdi3+0x2b0>
1c010934:	00f65733          	srl	a4,a2,a5
1c010938:	00b696b3          	sll	a3,a3,a1
1c01093c:	00d766b3          	or	a3,a4,a3
1c010940:	00f35733          	srl	a4,t1,a5
1c010944:	00b31333          	sll	t1,t1,a1
1c010948:	00f8d7b3          	srl	a5,a7,a5
1c01094c:	0067e7b3          	or	a5,a5,t1
1c010950:	0106d313          	srli	t1,a3,0x10
1c010954:	02675eb3          	divu	t4,a4,t1
1c010958:	01069813          	slli	a6,a3,0x10
1c01095c:	01085813          	srli	a6,a6,0x10
1c010960:	00b61633          	sll	a2,a2,a1
1c010964:	02677733          	remu	a4,a4,t1
1c010968:	03d80e33          	mul	t3,a6,t4
1c01096c:	01071513          	slli	a0,a4,0x10
1c010970:	0107d713          	srli	a4,a5,0x10
1c010974:	00a76733          	or	a4,a4,a0
1c010978:	000e8513          	mv	a0,t4
1c01097c:	01c77e63          	bgeu	a4,t3,1c010998 <__udivdi3+0x360>
1c010980:	00e68733          	add	a4,a3,a4
1c010984:	fffe8513          	addi	a0,t4,-1
1c010988:	00d76863          	bltu	a4,a3,1c010998 <__udivdi3+0x360>
1c01098c:	01c77663          	bgeu	a4,t3,1c010998 <__udivdi3+0x360>
1c010990:	ffee8513          	addi	a0,t4,-2
1c010994:	00d70733          	add	a4,a4,a3
1c010998:	41c70733          	sub	a4,a4,t3
1c01099c:	02675e33          	divu	t3,a4,t1
1c0109a0:	01079793          	slli	a5,a5,0x10
1c0109a4:	0107d793          	srli	a5,a5,0x10
1c0109a8:	02677733          	remu	a4,a4,t1
1c0109ac:	03c80833          	mul	a6,a6,t3
1c0109b0:	01071713          	slli	a4,a4,0x10
1c0109b4:	00e7e7b3          	or	a5,a5,a4
1c0109b8:	000e0713          	mv	a4,t3
1c0109bc:	0107fe63          	bgeu	a5,a6,1c0109d8 <__udivdi3+0x3a0>
1c0109c0:	00f687b3          	add	a5,a3,a5
1c0109c4:	fffe0713          	addi	a4,t3,-1
1c0109c8:	00d7e863          	bltu	a5,a3,1c0109d8 <__udivdi3+0x3a0>
1c0109cc:	0107f663          	bgeu	a5,a6,1c0109d8 <__udivdi3+0x3a0>
1c0109d0:	ffee0713          	addi	a4,t3,-2
1c0109d4:	00d787b3          	add	a5,a5,a3
1c0109d8:	01051513          	slli	a0,a0,0x10
1c0109dc:	00010e37          	lui	t3,0x10
1c0109e0:	00e56533          	or	a0,a0,a4
1c0109e4:	fffe0693          	addi	a3,t3,-1 # ffff <CONFIG_SYS_CLOCK_TICKS_PER_SEC+0x85ed>
1c0109e8:	00d57733          	and	a4,a0,a3
1c0109ec:	410787b3          	sub	a5,a5,a6
1c0109f0:	00d676b3          	and	a3,a2,a3
1c0109f4:	01055813          	srli	a6,a0,0x10
1c0109f8:	01065613          	srli	a2,a2,0x10
1c0109fc:	02d70333          	mul	t1,a4,a3
1c010a00:	02d806b3          	mul	a3,a6,a3
1c010a04:	02c70733          	mul	a4,a4,a2
1c010a08:	02c80833          	mul	a6,a6,a2
1c010a0c:	00d70633          	add	a2,a4,a3
1c010a10:	01035713          	srli	a4,t1,0x10
1c010a14:	00c70733          	add	a4,a4,a2
1c010a18:	00d77463          	bgeu	a4,a3,1c010a20 <__udivdi3+0x3e8>
1c010a1c:	01c80833          	add	a6,a6,t3
1c010a20:	01075693          	srli	a3,a4,0x10
1c010a24:	010686b3          	add	a3,a3,a6
1c010a28:	02d7e663          	bltu	a5,a3,1c010a54 <__udivdi3+0x41c>
1c010a2c:	ced79ee3          	bne	a5,a3,1c010728 <__udivdi3+0xf0>
1c010a30:	000107b7          	lui	a5,0x10
1c010a34:	fff78793          	addi	a5,a5,-1 # ffff <CONFIG_SYS_CLOCK_TICKS_PER_SEC+0x85ed>
1c010a38:	00f77733          	and	a4,a4,a5
1c010a3c:	01071713          	slli	a4,a4,0x10
1c010a40:	00f37333          	and	t1,t1,a5
1c010a44:	00b898b3          	sll	a7,a7,a1
1c010a48:	00670733          	add	a4,a4,t1
1c010a4c:	00000593          	li	a1,0
1c010a50:	cce8fee3          	bgeu	a7,a4,1c01072c <__udivdi3+0xf4>
1c010a54:	fff50513          	addi	a0,a0,-1 # ffffff <CONFIG_FLASH_LOAD_SIZE+0xfbffff>
1c010a58:	cd1ff06f          	j	1c010728 <__udivdi3+0xf0>
1c010a5c:	00000593          	li	a1,0
1c010a60:	00000513          	li	a0,0
1c010a64:	00008067          	ret

1c010a68 <__initialize>:
/*
 * Remainder of asm-land initialization code before we can jump into
 * the C domain
 */
SECTION_FUNC(TEXT, __initialize)
	csrr a0, mhartid
1c010a68:	f1402573          	csrr	a0,mhartid
	li t0, CONFIG_RV_BOOT_HART
1c010a6c:	4281                	li	t0,0
	beq a0, t0, boot_first_core
1c010a6e:	00550363          	beq	a0,t0,1c010a74 <boot_first_core>
	j boot_secondary_core
1c010a72:	a819                	j	1c010a88 <boot_secondary_core>

1c010a74 <boot_first_core>:

	/*
	 * Initially, setup stack pointer to
	 * z_interrupt_stacks + __z_interrupt_stack_SIZEOF
	 */
	la sp, z_interrupt_stacks
1c010a74:	00006117          	auipc	sp,0x6
1c010a78:	a7c10113          	addi	sp,sp,-1412 # 1c0164f0 <z_interrupt_stacks>
	li t0, __z_interrupt_stack_SIZEOF
1c010a7c:	6285                	lui	t0,0x1
1c010a7e:	80028293          	addi	t0,t0,-2048 # 800 <CONFIG_ISR_STACK_SIZE>
	add sp, sp, t0
1c010a82:	9116                	add	sp,sp,t0

	/*
	 * Jump into C domain. z_prep_c zeroes BSS, copies rw data into RAM,
	 * and then enters kernel z_cstart
	 */
	call z_prep_c
1c010a84:	7b1000ef          	jal	ra,1c011a34 <z_prep_c>

1c010a88 <boot_secondary_core>:
	la t0, riscv_cpu_boot_flag
	li t1, 1
	sr t1, 0(t0)
	j arch_secondary_cpu_init
#else
	j loop_unconfigured_cores
1c010a88:	a009                	j	1c010a8a <loop_unconfigured_cores>

1c010a8a <loop_unconfigured_cores>:
#endif

loop_unconfigured_cores:
	wfi
1c010a8a:	10500073          	wfi
	j loop_unconfigured_cores
1c010a8e:	bff5                	j	1c010a8a <loop_unconfigured_cores>
1c010a90:	0000                	unimp
	...

1c010a94 <z_riscv_switch>:

/* void z_riscv_switch(k_thread_t *switch_to, k_thread_t *switch_from) */
SECTION_FUNC(TEXT, z_riscv_switch)

	/* Save the old thread's callee-saved registers */
	DO_CALLEE_SAVED(sr, a1)
1c010a94:	0215aa23          	sw	ra,52(a1)
1c010a98:	dd80                	sw	s0,56(a1)
1c010a9a:	ddc4                	sw	s1,60(a1)
1c010a9c:	0525a023          	sw	s2,64(a1)
1c010aa0:	0535a223          	sw	s3,68(a1)
1c010aa4:	0545a423          	sw	s4,72(a1)
1c010aa8:	0555a623          	sw	s5,76(a1)
1c010aac:	0565a823          	sw	s6,80(a1)
1c010ab0:	0575aa23          	sw	s7,84(a1)
1c010ab4:	0585ac23          	sw	s8,88(a1)
1c010ab8:	0595ae23          	sw	s9,92(a1)
1c010abc:	07a5a023          	sw	s10,96(a1)
1c010ac0:	07b5a223          	sw	s11,100(a1)

	/* Save the old thread's stack pointer */
	sr sp, _thread_offset_to_sp(a1)
1c010ac4:	0225a823          	sw	sp,48(a1)

	/* Set thread->switch_handle = thread to mark completion */
	sr a1, ___thread_t_switch_handle_OFFSET(a1)
1c010ac8:	08b5a223          	sw	a1,132(a1)

	/* Get the new thread's stack pointer */
	lr sp, _thread_offset_to_sp(a0)
1c010acc:	03052103          	lw	sp,48(a0)

#if defined(CONFIG_THREAD_LOCAL_STORAGE)
	/* Get the new thread's tls pointer */
	lr tp, _thread_offset_to_tls(a0)
1c010ad0:	08c52203          	lw	tp,140(a0)
	call z_thread_mark_switched_in
	mv a0, s0
#endif

	/* Restore the new thread's callee-saved registers */
	DO_CALLEE_SAVED(lr, a0)
1c010ad4:	03452083          	lw	ra,52(a0)
1c010ad8:	5d00                	lw	s0,56(a0)
1c010ada:	5d44                	lw	s1,60(a0)
1c010adc:	04052903          	lw	s2,64(a0)
1c010ae0:	04452983          	lw	s3,68(a0)
1c010ae4:	04852a03          	lw	s4,72(a0)
1c010ae8:	04c52a83          	lw	s5,76(a0)
1c010aec:	05052b03          	lw	s6,80(a0)
1c010af0:	05452b83          	lw	s7,84(a0)
1c010af4:	05852c03          	lw	s8,88(a0)
1c010af8:	05c52c83          	lw	s9,92(a0)
1c010afc:	06052d03          	lw	s10,96(a0)
1c010b00:	06452d83          	lw	s11,100(a0)

	/* Return to arch_switch() or _irq_wrapper() */
	ret
1c010b04:	8082                	ret
	...

1c010b08 <strnlen>:
1c010b08:	00b505b3          	add	a1,a0,a1
1c010b0c:	00050793          	mv	a5,a0
1c010b10:	00b78663          	beq	a5,a1,1c010b1c <strnlen+0x14>
1c010b14:	0007c703          	lbu	a4,0(a5)
1c010b18:	00071663          	bnez	a4,1c010b24 <strnlen+0x1c>
1c010b1c:	40a78533          	sub	a0,a5,a0
1c010b20:	00008067          	ret
1c010b24:	00178793          	addi	a5,a5,1
1c010b28:	fe9ff06f          	j	1c010b10 <strnlen+0x8>

1c010b2c <__ultoa_invert>:
1c010b2c:	03700893          	li	a7,55
1c010b30:	40d888b3          	sub	a7,a7,a3
1c010b34:	00050793          	mv	a5,a0
1c010b38:	0ff8f893          	zext.b	a7,a7
1c010b3c:	00060513          	mv	a0,a2
1c010b40:	01f6f693          	andi	a3,a3,31
1c010b44:	00800313          	li	t1,8
1c010b48:	01000e13          	li	t3,16
1c010b4c:	00900613          	li	a2,9
1c010b50:	00500e93          	li	t4,5
1c010b54:	0ff7f713          	zext.b	a4,a5
1c010b58:	0e668263          	beq	a3,t1,1c010c3c <__ultoa_invert+0x110>
1c010b5c:	11c68663          	beq	a3,t3,1c010c68 <__ultoa_invert+0x13c>
1c010b60:	01f59f13          	slli	t5,a1,0x1f
1c010b64:	0017d813          	srli	a6,a5,0x1
1c010b68:	01e59f93          	slli	t6,a1,0x1e
1c010b6c:	0027d793          	srli	a5,a5,0x2
1c010b70:	010f6833          	or	a6,t5,a6
1c010b74:	00ffe7b3          	or	a5,t6,a5
1c010b78:	00f807b3          	add	a5,a6,a5
1c010b7c:	0015df13          	srli	t5,a1,0x1
1c010b80:	0025d593          	srli	a1,a1,0x2
1c010b84:	00bf05b3          	add	a1,t5,a1
1c010b88:	0107b833          	sltu	a6,a5,a6
1c010b8c:	00b80833          	add	a6,a6,a1
1c010b90:	01c81f13          	slli	t5,a6,0x1c
1c010b94:	0047d593          	srli	a1,a5,0x4
1c010b98:	00bf65b3          	or	a1,t5,a1
1c010b9c:	00b785b3          	add	a1,a5,a1
1c010ba0:	00485f13          	srli	t5,a6,0x4
1c010ba4:	01e80833          	add	a6,a6,t5
1c010ba8:	00f5b7b3          	sltu	a5,a1,a5
1c010bac:	010787b3          	add	a5,a5,a6
1c010bb0:	01879f13          	slli	t5,a5,0x18
1c010bb4:	0085d813          	srli	a6,a1,0x8
1c010bb8:	010f6833          	or	a6,t5,a6
1c010bbc:	01058833          	add	a6,a1,a6
1c010bc0:	0087df13          	srli	t5,a5,0x8
1c010bc4:	01e787b3          	add	a5,a5,t5
1c010bc8:	00b835b3          	sltu	a1,a6,a1
1c010bcc:	00f585b3          	add	a1,a1,a5
1c010bd0:	01059793          	slli	a5,a1,0x10
1c010bd4:	01085f13          	srli	t5,a6,0x10
1c010bd8:	01e7ef33          	or	t5,a5,t5
1c010bdc:	01e80f33          	add	t5,a6,t5
1c010be0:	0105d793          	srli	a5,a1,0x10
1c010be4:	00f585b3          	add	a1,a1,a5
1c010be8:	010f3833          	sltu	a6,t5,a6
1c010bec:	00b80833          	add	a6,a6,a1
1c010bf0:	010f07b3          	add	a5,t5,a6
1c010bf4:	01e7b5b3          	sltu	a1,a5,t5
1c010bf8:	010585b3          	add	a1,a1,a6
1c010bfc:	01d59813          	slli	a6,a1,0x1d
1c010c00:	0037d793          	srli	a5,a5,0x3
1c010c04:	00f867b3          	or	a5,a6,a5
1c010c08:	03d78833          	mul	a6,a5,t4
1c010c0c:	0035d593          	srli	a1,a1,0x3
1c010c10:	00181813          	slli	a6,a6,0x1
1c010c14:	41070733          	sub	a4,a4,a6
1c010c18:	0ff77713          	zext.b	a4,a4
1c010c1c:	02e67a63          	bgeu	a2,a4,1c010c50 <__ultoa_invert+0x124>
1c010c20:	00178813          	addi	a6,a5,1
1c010c24:	00f83f33          	sltu	t5,a6,a5
1c010c28:	ff670713          	addi	a4,a4,-10 # fffff6 <CONFIG_FLASH_LOAD_SIZE+0xfbfff6>
1c010c2c:	00080793          	mv	a5,a6
1c010c30:	00bf05b3          	add	a1,t5,a1
1c010c34:	0ff77713          	zext.b	a4,a4
1c010c38:	0440006f          	j	1c010c7c <__ultoa_invert+0x150>
1c010c3c:	01d59813          	slli	a6,a1,0x1d
1c010c40:	0037d793          	srli	a5,a5,0x3
1c010c44:	00777713          	andi	a4,a4,7
1c010c48:	00f867b3          	or	a5,a6,a5
1c010c4c:	0035d593          	srli	a1,a1,0x3
1c010c50:	03070713          	addi	a4,a4,48
1c010c54:	00e50023          	sb	a4,0(a0)
1c010c58:	00b7e733          	or	a4,a5,a1
1c010c5c:	00150513          	addi	a0,a0,1
1c010c60:	ee071ae3          	bnez	a4,1c010b54 <__ultoa_invert+0x28>
1c010c64:	00008067          	ret
1c010c68:	01c59813          	slli	a6,a1,0x1c
1c010c6c:	0047d793          	srli	a5,a5,0x4
1c010c70:	00f77713          	andi	a4,a4,15
1c010c74:	00f867b3          	or	a5,a6,a5
1c010c78:	0045d593          	srli	a1,a1,0x4
1c010c7c:	fce67ae3          	bgeu	a2,a4,1c010c50 <__ultoa_invert+0x124>
1c010c80:	00e88733          	add	a4,a7,a4
1c010c84:	0ff77713          	zext.b	a4,a4
1c010c88:	fc9ff06f          	j	1c010c50 <__ultoa_invert+0x124>

1c010c8c <__l_vfprintf>:
1c010c8c:	f9010113          	addi	sp,sp,-112
1c010c90:	05512a23          	sw	s5,84(sp)
1c010c94:	06112623          	sw	ra,108(sp)
1c010c98:	06812423          	sw	s0,104(sp)
1c010c9c:	06912223          	sw	s1,100(sp)
1c010ca0:	07212023          	sw	s2,96(sp)
1c010ca4:	05312e23          	sw	s3,92(sp)
1c010ca8:	05412c23          	sw	s4,88(sp)
1c010cac:	05612823          	sw	s6,80(sp)
1c010cb0:	05712623          	sw	s7,76(sp)
1c010cb4:	05812423          	sw	s8,72(sp)
1c010cb8:	05912223          	sw	s9,68(sp)
1c010cbc:	05a12023          	sw	s10,64(sp)
1c010cc0:	03b12e23          	sw	s11,60(sp)
1c010cc4:	00454783          	lbu	a5,4(a0)
1c010cc8:	00852a83          	lw	s5,8(a0)
1c010ccc:	0027f793          	andi	a5,a5,2
1c010cd0:	2e078463          	beqz	a5,1c010fb8 <__l_vfprintf+0x32c>
1c010cd4:	00050993          	mv	s3,a0
1c010cd8:	00060493          	mv	s1,a2
1c010cdc:	00000913          	li	s2,0
1c010ce0:	0005cc83          	lbu	s9,0(a1)
1c010ce4:	2c0c8c63          	beqz	s9,1c010fbc <__l_vfprintf+0x330>
1c010ce8:	02500793          	li	a5,37
1c010cec:	00158b93          	addi	s7,a1,1
1c010cf0:	00fc9a63          	bne	s9,a5,1c010d04 <__l_vfprintf+0x78>
1c010cf4:	0015cc83          	lbu	s9,1(a1)
1c010cf8:	02500793          	li	a5,37
1c010cfc:	00258b93          	addi	s7,a1,2
1c010d00:	02fc9063          	bne	s9,a5,1c010d20 <__l_vfprintf+0x94>
1c010d04:	00190913          	addi	s2,s2,1
1c010d08:	00098593          	mv	a1,s3
1c010d0c:	000c8513          	mv	a0,s9
1c010d10:	000a80e7          	jalr	s5
1c010d14:	28054c63          	bltz	a0,1c010fac <__l_vfprintf+0x320>
1c010d18:	000b8593          	mv	a1,s7
1c010d1c:	fc5ff06f          	j	1c010ce0 <__l_vfprintf+0x54>
1c010d20:	1c015737          	lui	a4,0x1c015
1c010d24:	00000d13          	li	s10,0
1c010d28:	00000a13          	li	s4,0
1c010d2c:	00000413          	li	s0,0
1c010d30:	01f00613          	li	a2,31
1c010d34:	06c00693          	li	a3,108
1c010d38:	07400593          	li	a1,116
1c010d3c:	07a00513          	li	a0,122
1c010d40:	06800813          	li	a6,104
1c010d44:	06a00893          	li	a7,106
1c010d48:	04c00313          	li	t1,76
1c010d4c:	02a00e13          	li	t3,42
1c010d50:	02e00e93          	li	t4,46
1c010d54:	07f00f13          	li	t5,127
1c010d58:	01000f93          	li	t6,16
1c010d5c:	00900293          	li	t0,9
1c010d60:	69c70713          	addi	a4,a4,1692 # 1c01569c <levels.0+0xfc>
1c010d64:	06866c63          	bltu	a2,s0,1c010ddc <__l_vfprintf+0x150>
1c010d68:	fe0c8793          	addi	a5,s9,-32
1c010d6c:	00ffea63          	bltu	t6,a5,1c010d80 <__l_vfprintf+0xf4>
1c010d70:	00279793          	slli	a5,a5,0x2
1c010d74:	00e787b3          	add	a5,a5,a4
1c010d78:	0007a783          	lw	a5,0(a5)
1c010d7c:	00078067          	jr	a5
1c010d80:	fd0c8793          	addi	a5,s9,-48
1c010d84:	08f2f063          	bgeu	t0,a5,1c010e04 <__l_vfprintf+0x178>
1c010d88:	09cc9e63          	bne	s9,t3,1c010e24 <__l_vfprintf+0x198>
1c010d8c:	04047393          	andi	t2,s0,64
1c010d90:	0004a783          	lw	a5,0(s1)
1c010d94:	00448493          	addi	s1,s1,4
1c010d98:	14039863          	bnez	t2,1c010ee8 <__l_vfprintf+0x25c>
1c010d9c:	0607ce63          	bltz	a5,1c010e18 <__l_vfprintf+0x18c>
1c010da0:	02046413          	ori	s0,s0,32
1c010da4:	00078a13          	mv	s4,a5
1c010da8:	0080006f          	j	1c010db0 <__l_vfprintf+0x124>
1c010dac:	00146413          	ori	s0,s0,1
1c010db0:	000bcc83          	lbu	s9,0(s7)
1c010db4:	001b8b93          	addi	s7,s7,1
1c010db8:	fa0c96e3          	bnez	s9,1c010d64 <__l_vfprintf+0xd8>
1c010dbc:	0900006f          	j	1c010e4c <__l_vfprintf+0x1c0>
1c010dc0:	00246413          	ori	s0,s0,2
1c010dc4:	00446413          	ori	s0,s0,4
1c010dc8:	fe9ff06f          	j	1c010db0 <__l_vfprintf+0x124>
1c010dcc:	00846413          	ori	s0,s0,8
1c010dd0:	fe1ff06f          	j	1c010db0 <__l_vfprintf+0x124>
1c010dd4:	01046413          	ori	s0,s0,16
1c010dd8:	fd9ff06f          	j	1c010db0 <__l_vfprintf+0x124>
1c010ddc:	048f6e63          	bltu	t5,s0,1c010e38 <__l_vfprintf+0x1ac>
1c010de0:	fd0c8793          	addi	a5,s9,-48
1c010de4:	00900393          	li	t2,9
1c010de8:	faf3e0e3          	bltu	t2,a5,1c010d88 <__l_vfprintf+0xfc>
1c010dec:	04047393          	andi	t2,s0,64
1c010df0:	00038a63          	beqz	t2,1c010e04 <__l_vfprintf+0x178>
1c010df4:	00a00393          	li	t2,10
1c010df8:	027d03b3          	mul	t2,s10,t2
1c010dfc:	00f38d33          	add	s10,t2,a5
1c010e00:	fb1ff06f          	j	1c010db0 <__l_vfprintf+0x124>
1c010e04:	00a00393          	li	t2,10
1c010e08:	027a03b3          	mul	t2,s4,t2
1c010e0c:	02046413          	ori	s0,s0,32
1c010e10:	00f38a33          	add	s4,t2,a5
1c010e14:	f9dff06f          	j	1c010db0 <__l_vfprintf+0x124>
1c010e18:	40f00a33          	neg	s4,a5
1c010e1c:	02846413          	ori	s0,s0,40
1c010e20:	f91ff06f          	j	1c010db0 <__l_vfprintf+0x124>
1c010e24:	01dc9a63          	bne	s9,t4,1c010e38 <__l_vfprintf+0x1ac>
1c010e28:	04047793          	andi	a5,s0,64
1c010e2c:	18079863          	bnez	a5,1c010fbc <__l_vfprintf+0x330>
1c010e30:	04046413          	ori	s0,s0,64
1c010e34:	f7dff06f          	j	1c010db0 <__l_vfprintf+0x124>
1c010e38:	08dc8063          	beq	s9,a3,1c010eb8 <__l_vfprintf+0x22c>
1c010e3c:	0796e863          	bltu	a3,s9,1c010eac <__l_vfprintf+0x220>
1c010e40:	090c8663          	beq	s9,a6,1c010ecc <__l_vfprintf+0x240>
1c010e44:	091c8e63          	beq	s9,a7,1c010ee0 <__l_vfprintf+0x254>
1c010e48:	086c8c63          	beq	s9,t1,1c010ee0 <__l_vfprintf+0x254>
1c010e4c:	000d5a63          	bgez	s10,1c010e60 <__l_vfprintf+0x1d4>
1c010e50:	fbf47413          	andi	s0,s0,-65
1c010e54:	01041413          	slli	s0,s0,0x10
1c010e58:	01045413          	srli	s0,s0,0x10
1c010e5c:	00000d13          	li	s10,0
1c010e60:	020ce693          	ori	a3,s9,32
1c010e64:	f9b68713          	addi	a4,a3,-101 # ff9b <CONFIG_SYS_CLOCK_TICKS_PER_SEC+0x8589>
1c010e68:	00200793          	li	a5,2
1c010e6c:	00e7f663          	bgeu	a5,a4,1c010e78 <__l_vfprintf+0x1ec>
1c010e70:	06100793          	li	a5,97
1c010e74:	06f69e63          	bne	a3,a5,1c010ef0 <__l_vfprintf+0x264>
1c010e78:	00748493          	addi	s1,s1,7
1c010e7c:	ff84f493          	andi	s1,s1,-8
1c010e80:	1c015b37          	lui	s6,0x1c015
1c010e84:	00848493          	addi	s1,s1,8
1c010e88:	00700c93          	li	s9,7
1c010e8c:	694b0b13          	addi	s6,s6,1684 # 1c015694 <levels.0+0xf4>
1c010e90:	00847413          	andi	s0,s0,8
1c010e94:	0e040c63          	beqz	s0,1c010f8c <__l_vfprintf+0x300>
1c010e98:	00000413          	li	s0,0
1c010e9c:	0e8c9c63          	bne	s9,s0,1c010f94 <__l_vfprintf+0x308>
1c010ea0:	01990633          	add	a2,s2,s9
1c010ea4:	419a0a33          	sub	s4,s4,s9
1c010ea8:	4280006f          	j	1c0112d0 <__l_vfprintf+0x644>
1c010eac:	f0bc82e3          	beq	s9,a1,1c010db0 <__l_vfprintf+0x124>
1c010eb0:	f0ac80e3          	beq	s9,a0,1c010db0 <__l_vfprintf+0x124>
1c010eb4:	f99ff06f          	j	1c010e4c <__l_vfprintf+0x1c0>
1c010eb8:	08047793          	andi	a5,s0,128
1c010ebc:	00078463          	beqz	a5,1c010ec4 <__l_vfprintf+0x238>
1c010ec0:	20046413          	ori	s0,s0,512
1c010ec4:	08046413          	ori	s0,s0,128
1c010ec8:	ee9ff06f          	j	1c010db0 <__l_vfprintf+0x124>
1c010ecc:	10047793          	andi	a5,s0,256
1c010ed0:	00078463          	beqz	a5,1c010ed8 <__l_vfprintf+0x24c>
1c010ed4:	20046413          	ori	s0,s0,512
1c010ed8:	10046413          	ori	s0,s0,256
1c010edc:	ed5ff06f          	j	1c010db0 <__l_vfprintf+0x124>
1c010ee0:	28046413          	ori	s0,s0,640
1c010ee4:	ecdff06f          	j	1c010db0 <__l_vfprintf+0x124>
1c010ee8:	00078d13          	mv	s10,a5
1c010eec:	ec5ff06f          	j	1c010db0 <__l_vfprintf+0x124>
1c010ef0:	f9dc8793          	addi	a5,s9,-99
1c010ef4:	01200713          	li	a4,18
1c010ef8:	2cf76263          	bltu	a4,a5,1c0111bc <__l_vfprintf+0x530>
1c010efc:	1c015737          	lui	a4,0x1c015
1c010f00:	00279793          	slli	a5,a5,0x2
1c010f04:	6e070713          	addi	a4,a4,1760 # 1c0156e0 <levels.0+0x140>
1c010f08:	00e787b3          	add	a5,a5,a4
1c010f0c:	0007a783          	lw	a5,0(a5)
1c010f10:	00078067          	jr	a5
1c010f14:	0004a783          	lw	a5,0(s1)
1c010f18:	00100c93          	li	s9,1
1c010f1c:	00448493          	addi	s1,s1,4
1c010f20:	00f10c23          	sb	a5,24(sp)
1c010f24:	01810b13          	addi	s6,sp,24
1c010f28:	f69ff06f          	j	1c010e90 <__l_vfprintf+0x204>
1c010f2c:	0004ab03          	lw	s6,0(s1)
1c010f30:	00448d93          	addi	s11,s1,4
1c010f34:	000b1663          	bnez	s6,1c010f40 <__l_vfprintf+0x2b4>
1c010f38:	1c015b37          	lui	s6,0x1c015
1c010f3c:	68cb0b13          	addi	s6,s6,1676 # 1c01568c <levels.0+0xec>
1c010f40:	04047793          	andi	a5,s0,64
1c010f44:	fff00593          	li	a1,-1
1c010f48:	00078463          	beqz	a5,1c010f50 <__l_vfprintf+0x2c4>
1c010f4c:	000d0593          	mv	a1,s10
1c010f50:	000b0513          	mv	a0,s6
1c010f54:	bb5ff0ef          	jal	ra,1c010b08 <strnlen>
1c010f58:	00050c93          	mv	s9,a0
1c010f5c:	000d8493          	mv	s1,s11
1c010f60:	f31ff06f          	j	1c010e90 <__l_vfprintf+0x204>
1c010f64:	00098593          	mv	a1,s3
1c010f68:	02000513          	li	a0,32
1c010f6c:	000a80e7          	jalr	s5
1c010f70:	02054e63          	bltz	a0,1c010fac <__l_vfprintf+0x320>
1c010f74:	fff40413          	addi	s0,s0,-1
1c010f78:	fe8ce6e3          	bltu	s9,s0,1c010f64 <__l_vfprintf+0x2d8>
1c010f7c:	01490933          	add	s2,s2,s4
1c010f80:	40890933          	sub	s2,s2,s0
1c010f84:	00040a13          	mv	s4,s0
1c010f88:	f11ff06f          	j	1c010e98 <__l_vfprintf+0x20c>
1c010f8c:	000a0413          	mv	s0,s4
1c010f90:	fe9ff06f          	j	1c010f78 <__l_vfprintf+0x2ec>
1c010f94:	008b07b3          	add	a5,s6,s0
1c010f98:	0007c503          	lbu	a0,0(a5)
1c010f9c:	00098593          	mv	a1,s3
1c010fa0:	00140413          	addi	s0,s0,1
1c010fa4:	000a80e7          	jalr	s5
1c010fa8:	ee055ae3          	bgez	a0,1c010e9c <__l_vfprintf+0x210>
1c010fac:	0049c783          	lbu	a5,4(s3)
1c010fb0:	0047e793          	ori	a5,a5,4
1c010fb4:	00f98223          	sb	a5,4(s3)
1c010fb8:	fff00913          	li	s2,-1
1c010fbc:	06c12083          	lw	ra,108(sp)
1c010fc0:	06812403          	lw	s0,104(sp)
1c010fc4:	06412483          	lw	s1,100(sp)
1c010fc8:	05c12983          	lw	s3,92(sp)
1c010fcc:	05812a03          	lw	s4,88(sp)
1c010fd0:	05412a83          	lw	s5,84(sp)
1c010fd4:	05012b03          	lw	s6,80(sp)
1c010fd8:	04c12b83          	lw	s7,76(sp)
1c010fdc:	04812c03          	lw	s8,72(sp)
1c010fe0:	04412c83          	lw	s9,68(sp)
1c010fe4:	04012d03          	lw	s10,64(sp)
1c010fe8:	03c12d83          	lw	s11,60(sp)
1c010fec:	00090513          	mv	a0,s2
1c010ff0:	06012903          	lw	s2,96(sp)
1c010ff4:	07010113          	addi	sp,sp,112
1c010ff8:	00008067          	ret
1c010ffc:	08047793          	andi	a5,s0,128
1c011000:	0c078263          	beqz	a5,1c0110c4 <__l_vfprintf+0x438>
1c011004:	20047793          	andi	a5,s0,512
1c011008:	0a078663          	beqz	a5,1c0110b4 <__l_vfprintf+0x428>
1c01100c:	00748493          	addi	s1,s1,7
1c011010:	ff84f493          	andi	s1,s1,-8
1c011014:	0004a503          	lw	a0,0(s1)
1c011018:	0044a583          	lw	a1,4(s1)
1c01101c:	00848b13          	addi	s6,s1,8
1c011020:	fef47493          	andi	s1,s0,-17
1c011024:	01049493          	slli	s1,s1,0x10
1c011028:	0104d493          	srli	s1,s1,0x10
1c01102c:	0c05d463          	bgez	a1,1c0110f4 <__l_vfprintf+0x468>
1c011030:	00a037b3          	snez	a5,a0
1c011034:	40b005b3          	neg	a1,a1
1c011038:	40f585b3          	sub	a1,a1,a5
1c01103c:	40a00533          	neg	a0,a0
1c011040:	4004e493          	ori	s1,s1,1024
1c011044:	01810c13          	addi	s8,sp,24
1c011048:	00a00693          	li	a3,10
1c01104c:	000c0613          	mv	a2,s8
1c011050:	addff0ef          	jal	ra,1c010b2c <__ultoa_invert>
1c011054:	0404f793          	andi	a5,s1,64
1c011058:	41850c33          	sub	s8,a0,s8
1c01105c:	12078c63          	beqz	a5,1c011194 <__l_vfprintf+0x508>
1c011060:	ffe4f793          	andi	a5,s1,-2
1c011064:	01079793          	slli	a5,a5,0x10
1c011068:	0107d793          	srli	a5,a5,0x10
1c01106c:	1fac5663          	bge	s8,s10,1c011258 <__l_vfprintf+0x5cc>
1c011070:	1c0c8a63          	beqz	s9,1c011244 <__l_vfprintf+0x5b8>
1c011074:	0104fd93          	andi	s11,s1,16
1c011078:	000d0413          	mv	s0,s10
1c01107c:	00078493          	mv	s1,a5
1c011080:	080d8e63          	beqz	s11,1c01111c <__l_vfprintf+0x490>
1c011084:	00240413          	addi	s0,s0,2
1c011088:	0084f793          	andi	a5,s1,8
1c01108c:	20079463          	bnez	a5,1c011294 <__l_vfprintf+0x608>
1c011090:	0014f793          	andi	a5,s1,1
1c011094:	00078c63          	beqz	a5,1c0110ac <__l_vfprintf+0x420>
1c011098:	000c0d13          	mv	s10,s8
1c01109c:	01445863          	bge	s0,s4,1c0110ac <__l_vfprintf+0x420>
1c0110a0:	408a0433          	sub	s0,s4,s0
1c0110a4:	01840d33          	add	s10,s0,s8
1c0110a8:	000a0413          	mv	s0,s4
1c0110ac:	00040793          	mv	a5,s0
1c0110b0:	1d40006f          	j	1c011284 <__l_vfprintf+0x5f8>
1c0110b4:	0004a503          	lw	a0,0(s1)
1c0110b8:	00448b13          	addi	s6,s1,4
1c0110bc:	41f55593          	srai	a1,a0,0x1f
1c0110c0:	f61ff06f          	j	1c011020 <__l_vfprintf+0x394>
1c0110c4:	10047793          	andi	a5,s0,256
1c0110c8:	0004a503          	lw	a0,0(s1)
1c0110cc:	00448b13          	addi	s6,s1,4
1c0110d0:	fe0786e3          	beqz	a5,1c0110bc <__l_vfprintf+0x430>
1c0110d4:	20047793          	andi	a5,s0,512
1c0110d8:	00078863          	beqz	a5,1c0110e8 <__l_vfprintf+0x45c>
1c0110dc:	01851513          	slli	a0,a0,0x18
1c0110e0:	41855513          	srai	a0,a0,0x18
1c0110e4:	fd9ff06f          	j	1c0110bc <__l_vfprintf+0x430>
1c0110e8:	01051513          	slli	a0,a0,0x10
1c0110ec:	41055513          	srai	a0,a0,0x10
1c0110f0:	fcdff06f          	j	1c0110bc <__l_vfprintf+0x430>
1c0110f4:	00b567b3          	or	a5,a0,a1
1c0110f8:	f40796e3          	bnez	a5,1c011044 <__l_vfprintf+0x3b8>
1c0110fc:	04047793          	andi	a5,s0,64
1c011100:	f40782e3          	beqz	a5,1c011044 <__l_vfprintf+0x3b8>
1c011104:	f40d10e3          	bnez	s10,1c011044 <__l_vfprintf+0x3b8>
1c011108:	fee47493          	andi	s1,s0,-18
1c01110c:	01049493          	slli	s1,s1,0x10
1c011110:	0104d493          	srli	s1,s1,0x10
1c011114:	00000413          	li	s0,0
1c011118:	00000c13          	li	s8,0
1c01111c:	4064fd93          	andi	s11,s1,1030
1c011120:	f60d84e3          	beqz	s11,1c011088 <__l_vfprintf+0x3fc>
1c011124:	00140413          	addi	s0,s0,1
1c011128:	00000d93          	li	s11,0
1c01112c:	f5dff06f          	j	1c011088 <__l_vfprintf+0x3fc>
1c011130:	fef47413          	andi	s0,s0,-17
1c011134:	01041413          	slli	s0,s0,0x10
1c011138:	01045413          	srli	s0,s0,0x10
1c01113c:	00a00693          	li	a3,10
1c011140:	08047793          	andi	a5,s0,128
1c011144:	0c078063          	beqz	a5,1c011204 <__l_vfprintf+0x578>
1c011148:	20047793          	andi	a5,s0,512
1c01114c:	0a078463          	beqz	a5,1c0111f4 <__l_vfprintf+0x568>
1c011150:	00748493          	addi	s1,s1,7
1c011154:	ff84f493          	andi	s1,s1,-8
1c011158:	0004a503          	lw	a0,0(s1)
1c01115c:	0044a583          	lw	a1,4(s1)
1c011160:	00848b13          	addi	s6,s1,8
1c011164:	00b567b3          	or	a5,a0,a1
1c011168:	0c079463          	bnez	a5,1c011230 <__l_vfprintf+0x5a4>
1c01116c:	fe947493          	andi	s1,s0,-23
1c011170:	01049493          	slli	s1,s1,0x10
1c011174:	04047793          	andi	a5,s0,64
1c011178:	0104d493          	srli	s1,s1,0x10
1c01117c:	0c078063          	beqz	a5,1c01123c <__l_vfprintf+0x5b0>
1c011180:	0a0d1e63          	bnez	s10,1c01123c <__l_vfprintf+0x5b0>
1c011184:	fe847493          	andi	s1,s0,-24
1c011188:	01049493          	slli	s1,s1,0x10
1c01118c:	0104d493          	srli	s1,s1,0x10
1c011190:	00000c13          	li	s8,0
1c011194:	0104fd93          	andi	s11,s1,16
1c011198:	0c0d8463          	beqz	s11,1c011260 <__l_vfprintf+0x5d4>
1c01119c:	001c0413          	addi	s0,s8,1
1c0111a0:	ee0c84e3          	beqz	s9,1c011088 <__l_vfprintf+0x3fc>
1c0111a4:	000c0413          	mv	s0,s8
1c0111a8:	eddff06f          	j	1c011084 <__l_vfprintf+0x3f8>
1c0111ac:	01046413          	ori	s0,s0,16
1c0111b0:	01000693          	li	a3,16
1c0111b4:	07800c93          	li	s9,120
1c0111b8:	f89ff06f          	j	1c011140 <__l_vfprintf+0x4b4>
1c0111bc:	07800793          	li	a5,120
1c0111c0:	00f69863          	bne	a3,a5,1c0111d0 <__l_vfprintf+0x544>
1c0111c4:	419686b3          	sub	a3,a3,s9
1c0111c8:	0106e693          	ori	a3,a3,16
1c0111cc:	f75ff06f          	j	1c011140 <__l_vfprintf+0x4b4>
1c0111d0:	00098593          	mv	a1,s3
1c0111d4:	02500513          	li	a0,37
1c0111d8:	000a80e7          	jalr	s5
1c0111dc:	dc0548e3          	bltz	a0,1c010fac <__l_vfprintf+0x320>
1c0111e0:	00290913          	addi	s2,s2,2
1c0111e4:	b25ff06f          	j	1c010d08 <__l_vfprintf+0x7c>
1c0111e8:	00800693          	li	a3,8
1c0111ec:	00000c93          	li	s9,0
1c0111f0:	f51ff06f          	j	1c011140 <__l_vfprintf+0x4b4>
1c0111f4:	0004a503          	lw	a0,0(s1)
1c0111f8:	00448b13          	addi	s6,s1,4
1c0111fc:	00000593          	li	a1,0
1c011200:	f65ff06f          	j	1c011164 <__l_vfprintf+0x4d8>
1c011204:	10047793          	andi	a5,s0,256
1c011208:	0004a503          	lw	a0,0(s1)
1c01120c:	00448b13          	addi	s6,s1,4
1c011210:	fe0786e3          	beqz	a5,1c0111fc <__l_vfprintf+0x570>
1c011214:	20047793          	andi	a5,s0,512
1c011218:	00078663          	beqz	a5,1c011224 <__l_vfprintf+0x598>
1c01121c:	0ff57513          	zext.b	a0,a0
1c011220:	fddff06f          	j	1c0111fc <__l_vfprintf+0x570>
1c011224:	01051513          	slli	a0,a0,0x10
1c011228:	01055513          	srli	a0,a0,0x10
1c01122c:	fd1ff06f          	j	1c0111fc <__l_vfprintf+0x570>
1c011230:	ff947413          	andi	s0,s0,-7
1c011234:	01041493          	slli	s1,s0,0x10
1c011238:	0104d493          	srli	s1,s1,0x10
1c01123c:	01810c13          	addi	s8,sp,24
1c011240:	e0dff06f          	j	1c01104c <__l_vfprintf+0x3c0>
1c011244:	fee4f493          	andi	s1,s1,-18
1c011248:	01049493          	slli	s1,s1,0x10
1c01124c:	0104d493          	srli	s1,s1,0x10
1c011250:	000d0413          	mv	s0,s10
1c011254:	ec9ff06f          	j	1c01111c <__l_vfprintf+0x490>
1c011258:	00078493          	mv	s1,a5
1c01125c:	f39ff06f          	j	1c011194 <__l_vfprintf+0x508>
1c011260:	000c0413          	mv	s0,s8
1c011264:	eb9ff06f          	j	1c01111c <__l_vfprintf+0x490>
1c011268:	00098593          	mv	a1,s3
1c01126c:	02000513          	li	a0,32
1c011270:	00f12623          	sw	a5,12(sp)
1c011274:	000a80e7          	jalr	s5
1c011278:	d2054ae3          	bltz	a0,1c010fac <__l_vfprintf+0x320>
1c01127c:	00c12783          	lw	a5,12(sp)
1c011280:	00178793          	addi	a5,a5,1
1c011284:	ff47c2e3          	blt	a5,s4,1c011268 <__l_vfprintf+0x5dc>
1c011288:	40890433          	sub	s0,s2,s0
1c01128c:	00f40933          	add	s2,s0,a5
1c011290:	00078413          	mv	s0,a5
1c011294:	060d8063          	beqz	s11,1c0112f4 <__l_vfprintf+0x668>
1c011298:	00098593          	mv	a1,s3
1c01129c:	03000513          	li	a0,48
1c0112a0:	000a80e7          	jalr	s5
1c0112a4:	d00544e3          	bltz	a0,1c010fac <__l_vfprintf+0x320>
1c0112a8:	020c9a63          	bnez	s9,1c0112dc <__l_vfprintf+0x650>
1c0112ac:	00190913          	addi	s2,s2,1
1c0112b0:	012d0d33          	add	s10,s10,s2
1c0112b4:	412d07b3          	sub	a5,s10,s2
1c0112b8:	06fc4663          	blt	s8,a5,1c011324 <__l_vfprintf+0x698>
1c0112bc:	000c0493          	mv	s1,s8
1c0112c0:	06049e63          	bnez	s1,1c01133c <__l_vfprintf+0x6b0>
1c0112c4:	012c0633          	add	a2,s8,s2
1c0112c8:	408a0a33          	sub	s4,s4,s0
1c0112cc:	000b0493          	mv	s1,s6
1c0112d0:	00060913          	mv	s2,a2
1c0112d4:	01460a33          	add	s4,a2,s4
1c0112d8:	0980006f          	j	1c011370 <__l_vfprintf+0x6e4>
1c0112dc:	00290913          	addi	s2,s2,2
1c0112e0:	00098593          	mv	a1,s3
1c0112e4:	000c8513          	mv	a0,s9
1c0112e8:	000a80e7          	jalr	s5
1c0112ec:	fc0552e3          	bgez	a0,1c0112b0 <__l_vfprintf+0x624>
1c0112f0:	cbdff06f          	j	1c010fac <__l_vfprintf+0x320>
1c0112f4:	4064f793          	andi	a5,s1,1030
1c0112f8:	fa078ce3          	beqz	a5,1c0112b0 <__l_vfprintf+0x624>
1c0112fc:	0024f793          	andi	a5,s1,2
1c011300:	02000513          	li	a0,32
1c011304:	00078463          	beqz	a5,1c01130c <__l_vfprintf+0x680>
1c011308:	02b00513          	li	a0,43
1c01130c:	4004f493          	andi	s1,s1,1024
1c011310:	00048463          	beqz	s1,1c011318 <__l_vfprintf+0x68c>
1c011314:	02d00513          	li	a0,45
1c011318:	00190913          	addi	s2,s2,1
1c01131c:	00098593          	mv	a1,s3
1c011320:	fc9ff06f          	j	1c0112e8 <__l_vfprintf+0x65c>
1c011324:	00098593          	mv	a1,s3
1c011328:	03000513          	li	a0,48
1c01132c:	00190913          	addi	s2,s2,1
1c011330:	000a80e7          	jalr	s5
1c011334:	f80550e3          	bgez	a0,1c0112b4 <__l_vfprintf+0x628>
1c011338:	c75ff06f          	j	1c010fac <__l_vfprintf+0x320>
1c01133c:	fff48493          	addi	s1,s1,-1
1c011340:	01810793          	addi	a5,sp,24
1c011344:	009787b3          	add	a5,a5,s1
1c011348:	0007c503          	lbu	a0,0(a5)
1c01134c:	00098593          	mv	a1,s3
1c011350:	000a80e7          	jalr	s5
1c011354:	f60556e3          	bgez	a0,1c0112c0 <__l_vfprintf+0x634>
1c011358:	c55ff06f          	j	1c010fac <__l_vfprintf+0x320>
1c01135c:	00098593          	mv	a1,s3
1c011360:	02000513          	li	a0,32
1c011364:	00190913          	addi	s2,s2,1
1c011368:	000a80e7          	jalr	s5
1c01136c:	c40540e3          	bltz	a0,1c010fac <__l_vfprintf+0x320>
1c011370:	412a07b3          	sub	a5,s4,s2
1c011374:	fef044e3          	bgtz	a5,1c01135c <__l_vfprintf+0x6d0>
1c011378:	9a1ff06f          	j	1c010d18 <__l_vfprintf+0x8c>

1c01137c <_OffsetAbsSyms>:
GEN_OFFSET_SYM(_cpu_arch_t, user_exc_sp);
GEN_OFFSET_SYM(_cpu_arch_t, user_exc_tmp0);
GEN_OFFSET_SYM(_cpu_arch_t, user_exc_tmp1);
#endif

GEN_ABS_SYM_END
1c01137c:	8082                	ret

1c01137e <pwm_set.constprop.0>:
 *
 * @retval 0 If successful.
 * @retval -ENOTSUP If requested period or pulse cycles are not supported.
 * @retval -errno Other negative errno code on failure.
 */
static inline int pwm_set(const struct device *dev, uint32_t channel,
1c01137e:	7139                	addi	sp,sp,-64
1c011380:	da26                	sw	s1,52(sp)
1c011382:	d84a                	sw	s2,48(sp)
1c011384:	d452                	sw	s4,40(sp)
1c011386:	d256                	sw	s5,36(sp)
1c011388:	de06                	sw	ra,60(sp)
1c01138a:	dc22                	sw	s0,56(sp)
1c01138c:	d64e                	sw	s3,44(sp)
1c01138e:	d05a                	sw	s6,32(sp)
1c011390:	ce5e                	sw	s7,28(sp)
1c011392:	cc62                	sw	s8,24(sp)
1c011394:	ca66                	sw	s9,20(sp)
1c011396:	84aa                	mv	s1,a0
1c011398:	8a2e                	mv	s4,a1
1c01139a:	8932                	mv	s2,a2
1c01139c:	8ab6                	mv	s5,a3
	return api->get_cycles_per_sec(dev, channel, cycles);
1c01139e:	451c                	lw	a5,8(a0)
1c0113a0:	0030                	addi	a2,sp,8
1c0113a2:	43dc                	lw	a5,4(a5)
1c0113a4:	9782                	jalr	a5
	uint64_t pulse_cycles;
	uint64_t period_cycles;
	uint64_t cycles_per_sec;

	err = pwm_get_cycles_per_sec(dev, channel, &cycles_per_sec);
	if (err < 0) {
1c0113a6:	06054e63          	bltz	a0,1c011422 <pwm_set.constprop.0+0xa4>
		return err;
	}

	period_cycles = (period * cycles_per_sec) / NSEC_PER_SEC;
1c0113aa:	4ba2                	lw	s7,8(sp)
1c0113ac:	4432                	lw	s0,12(sp)
1c0113ae:	00125537          	lui	a0,0x125
1c0113b2:	f8050513          	addi	a0,a0,-128 # 124f80 <CONFIG_FLASH_LOAD_SIZE+0xe4f80>
1c0113b6:	02abb7b3          	mulhu	a5,s7,a0
1c0113ba:	3b9ad637          	lui	a2,0x3b9ad
1c0113be:	a0060613          	addi	a2,a2,-1536 # 3b9aca00 <__kernel_ram_end+0x1f995710>
1c0113c2:	4681                	li	a3,0
	if (period_cycles > UINT32_MAX) {
1c0113c4:	3b9adb37          	lui	s6,0x3b9ad
1c0113c8:	9ffb0b13          	addi	s6,s6,-1537 # 3b9ac9ff <__kernel_ram_end+0x1f99570f>
	period_cycles = (period * cycles_per_sec) / NSEC_PER_SEC;
1c0113cc:	02a40c33          	mul	s8,s0,a0
1c0113d0:	02ab8533          	mul	a0,s7,a0
1c0113d4:	9c3e                	add	s8,s8,a5
1c0113d6:	85e2                	mv	a1,s8
1c0113d8:	a60ff0ef          	jal	ra,1c010638 <__udivdi3>
1c0113dc:	89aa                	mv	s3,a0
		return -ENOTSUP;
1c0113de:	f7a00513          	li	a0,-134
	if (period_cycles > UINT32_MAX) {
1c0113e2:	058b6063          	bltu	s6,s8,1c011422 <pwm_set.constprop.0+0xa4>
	}

	pulse_cycles = (pulse * cycles_per_sec) / NSEC_PER_SEC;
1c0113e6:	037937b3          	mulhu	a5,s2,s7
1c0113ea:	3b9ad637          	lui	a2,0x3b9ad
1c0113ee:	4681                	li	a3,0
1c0113f0:	a0060613          	addi	a2,a2,-1536 # 3b9aca00 <__kernel_ram_end+0x1f995710>
1c0113f4:	03240433          	mul	s0,s0,s2
1c0113f8:	03790533          	mul	a0,s2,s7
1c0113fc:	943e                	add	s0,s0,a5
1c0113fe:	85a2                	mv	a1,s0
1c011400:	a38ff0ef          	jal	ra,1c010638 <__udivdi3>
1c011404:	86aa                	mv	a3,a0
		return -ENOTSUP;
1c011406:	f7a00513          	li	a0,-134
	if (pulse_cycles > UINT32_MAX) {
1c01140a:	008b6c63          	bltu	s6,s0,1c011422 <pwm_set.constprop.0+0xa4>
		return -EINVAL;
1c01140e:	5529                	li	a0,-22
	const struct pwm_driver_api *api =
1c011410:	449c                	lw	a5,8(s1)
	if (pulse > period) {
1c011412:	00d9e863          	bltu	s3,a3,1c011422 <pwm_set.constprop.0+0xa4>
	return api->set_cycles(dev, channel, period, pulse, flags);
1c011416:	439c                	lw	a5,0(a5)
1c011418:	8756                	mv	a4,s5
1c01141a:	864e                	mv	a2,s3
1c01141c:	85d2                	mv	a1,s4
1c01141e:	8526                	mv	a0,s1
1c011420:	9782                	jalr	a5
		return -ENOTSUP;
	}

	return pwm_set_cycles(dev, channel, (uint32_t)period_cycles,
			      (uint32_t)pulse_cycles, flags);
}
1c011422:	50f2                	lw	ra,60(sp)
1c011424:	5462                	lw	s0,56(sp)
1c011426:	54d2                	lw	s1,52(sp)
1c011428:	5942                	lw	s2,48(sp)
1c01142a:	59b2                	lw	s3,44(sp)
1c01142c:	5a22                	lw	s4,40(sp)
1c01142e:	5a92                	lw	s5,36(sp)
1c011430:	5b02                	lw	s6,32(sp)
1c011432:	4bf2                	lw	s7,28(sp)
1c011434:	4c62                	lw	s8,24(sp)
1c011436:	4cd2                	lw	s9,20(sp)
1c011438:	6121                	addi	sp,sp,64
1c01143a:	8082                	ret

1c01143c <main>:
  uint32_t max_period = MAX_PERIOD;
  uint32_t period;
  uint8_t dir = 0U;
  int ret;

  printk("PWM-based blinky\n");
1c01143c:	1c015537          	lui	a0,0x1c015
int main(void) {
1c011440:	1101                	addi	sp,sp,-32
  printk("PWM-based blinky\n");
1c011442:	a3450513          	addi	a0,a0,-1484 # 1c014a34 <__clz_tab+0x100>
int main(void) {
1c011446:	ce06                	sw	ra,28(sp)
1c011448:	cc22                	sw	s0,24(sp)
1c01144a:	ca26                	sw	s1,20(sp)
1c01144c:	c84a                	sw	s2,16(sp)
1c01144e:	c64e                	sw	s3,12(sp)
1c011450:	c452                	sw	s4,8(sp)
1c011452:	c256                	sw	s5,4(sp)
1c011454:	c05a                	sw	s6,0(sp)
  printk("PWM-based blinky\n");
1c011456:	2c29                	jal	1c011670 <printk>
		union { uintptr_t x; const struct device * val; } parm0 = { .val = dev };
		return (bool) arch_syscall_invoke1(parm0.x, K_SYSCALL_DEVICE_IS_READY);
	}
#endif
	compiler_barrier();
	return z_impl_device_is_ready(dev);
1c011458:	1c0144b7          	lui	s1,0x1c014
1c01145c:	6c848513          	addi	a0,s1,1736 # 1c0146c8 <__device_dts_ord_13>
1c011460:	731010ef          	jal	ra,1c013390 <z_impl_device_is_ready>

  if (!pwm_is_ready_dt(&pwm_motor0)) {
1c011464:	e505                	bnez	a0,1c01148c <main+0x50>
    printk("Error: PWM device %s is not ready\n", pwm_motor0.dev->name);
1c011466:	6c848493          	addi	s1,s1,1736
1c01146a:	408c                	lw	a1,0(s1)
1c01146c:	1c015537          	lui	a0,0x1c015
1c011470:	a4850513          	addi	a0,a0,-1464 # 1c014a48 <__clz_tab+0x114>

  period = max_period / 2 + max_period / 5;
  while (1) {
    ret = pwm_set_dt(&pwm_motor0, max_period, period);
    if (ret) {
      printk("Error %d: failed to set pulse width\n", ret);
1c011474:	2af5                	jal	1c011670 <printk>
      period = max_period / 2;

    k_usleep(5000000);
  }
  return 0;
}
1c011476:	40f2                	lw	ra,28(sp)
1c011478:	4462                	lw	s0,24(sp)
1c01147a:	44d2                	lw	s1,20(sp)
1c01147c:	4942                	lw	s2,16(sp)
1c01147e:	49b2                	lw	s3,12(sp)
1c011480:	4a22                	lw	s4,8(sp)
1c011482:	4a92                	lw	s5,4(sp)
1c011484:	4b02                	lw	s6,0(sp)
1c011486:	4501                	li	a0,0
1c011488:	6105                	addi	sp,sp,32
1c01148a:	8082                	ret
 * @see pwm_set_pulse_dt()
 */
static inline int pwm_set_dt(const struct pwm_dt_spec *spec, uint32_t period,
			     uint32_t pulse)
{
	return pwm_set(spec->dev, spec->channel, period, pulse, spec->flags);
1c01148c:	00092637          	lui	a2,0x92
1c011490:	4681                	li	a3,0
1c011492:	7c060613          	addi	a2,a2,1984 # 927c0 <CONFIG_FLASH_LOAD_SIZE+0x527c0>
1c011496:	4581                	li	a1,0
1c011498:	6c848513          	addi	a0,s1,1736
1c01149c:	35cd                	jal	1c01137e <pwm_set.constprop.0>
		union { uintptr_t x; int32_t val; } parm0 = { .val = us };
		return (int32_t) arch_syscall_invoke1(parm0.x, K_SYSCALL_K_USLEEP);
	}
#endif
	compiler_barrier();
	return z_impl_k_usleep(us);
1c01149e:	004c5937          	lui	s2,0x4c5
1c0114a2:	b4090513          	addi	a0,s2,-1216 # 4c4b40 <CONFIG_FLASH_LOAD_SIZE+0x484b40>
  period = max_period / 2 + max_period / 5;
1c0114a6:	000cd437          	lui	s0,0xcd
    period = period + (max_period / 20);
1c0114aa:	69bd                	lui	s3,0xf
    if (period >= max_period)
1c0114ac:	00125a37          	lui	s4,0x125
1c0114b0:	23b020ef          	jal	ra,1c013eea <z_impl_k_usleep>
  period = max_period / 2 + max_period / 5;
1c0114b4:	14040413          	addi	s0,s0,320 # cd140 <CONFIG_FLASH_LOAD_SIZE+0x8d140>
    printk("Using period %d\n", period);
1c0114b8:	1c015ab7          	lui	s5,0x1c015
    period = period + (max_period / 20);
1c0114bc:	a6098993          	addi	s3,s3,-1440 # ea60 <CONFIG_SYS_CLOCK_TICKS_PER_SEC+0x704e>
    if (period >= max_period)
1c0114c0:	f7fa0a13          	addi	s4,s4,-129 # 124f7f <CONFIG_FLASH_LOAD_SIZE+0xe4f7f>
      period = max_period / 2;
1c0114c4:	00092b37          	lui	s6,0x92
1c0114c8:	b4090913          	addi	s2,s2,-1216
1c0114cc:	4581                	li	a1,0
1c0114ce:	4681                	li	a3,0
1c0114d0:	8622                	mv	a2,s0
1c0114d2:	6c848513          	addi	a0,s1,1736
1c0114d6:	3565                	jal	1c01137e <pwm_set.constprop.0>
1c0114d8:	85aa                	mv	a1,a0
    if (ret) {
1c0114da:	c511                	beqz	a0,1c0114e6 <main+0xaa>
      printk("Error %d: failed to set pulse width\n", ret);
1c0114dc:	1c015537          	lui	a0,0x1c015
1c0114e0:	a6c50513          	addi	a0,a0,-1428 # 1c014a6c <__clz_tab+0x138>
1c0114e4:	bf41                	j	1c011474 <main+0x38>
    printk("Using period %d\n", period);
1c0114e6:	85a2                	mv	a1,s0
1c0114e8:	a94a8513          	addi	a0,s5,-1388 # 1c014a94 <__clz_tab+0x160>
    period = period + (max_period / 20);
1c0114ec:	944e                	add	s0,s0,s3
    printk("Using period %d\n", period);
1c0114ee:	2249                	jal	1c011670 <printk>
    if (period >= max_period)
1c0114f0:	008a7463          	bgeu	s4,s0,1c0114f8 <main+0xbc>
      period = max_period / 2;
1c0114f4:	7c0b0413          	addi	s0,s6,1984 # 927c0 <CONFIG_FLASH_LOAD_SIZE+0x527c0>
1c0114f8:	854a                	mv	a0,s2
1c0114fa:	1f1020ef          	jal	ra,1c013eea <z_impl_k_usleep>
1c0114fe:	b7f9                	j	1c0114cc <main+0x90>

1c011500 <chunk_size>:
	void *cmem = &buf[c];

	if (big_heap(h)) {
		return ((uint32_t *)cmem)[f];
	} else {
		return ((uint16_t *)cmem)[f];
1c011500:	058e                	slli	a1,a1,0x3
1c011502:	952e                	add	a0,a0,a1
1c011504:	00255503          	lhu	a0,2(a0)
}

static inline chunksz_t chunk_size(struct z_heap *h, chunkid_t c)
{
	return chunk_field(h, c, SIZE_AND_USED) >> 1;
}
1c011508:	8105                	srli	a0,a0,0x1
1c01150a:	8082                	ret

1c01150c <free_list_add>:
	h->free_bytes += chunksz_to_bytes(h, chunk_size(h, c));
#endif
}

static void free_list_add(struct z_heap *h, chunkid_t c)
{
1c01150c:	1141                	addi	sp,sp,-16
1c01150e:	c606                	sw	ra,12(sp)
1c011510:	c422                	sw	s0,8(sp)
1c011512:	c226                	sw	s1,4(sp)
1c011514:	842a                	mv	s0,a0
1c011516:	84ae                	mv	s1,a1
	if (!solo_free_header(h, c)) {
		int bidx = bucket_idx(h, chunk_size(h, c));
1c011518:	37e5                	jal	1c011500 <chunk_size>
}

static inline int bucket_idx(struct z_heap *h, chunksz_t sz)
{
	unsigned int usable_sz = sz - min_chunk_size(h) + 1;
	return 31 - __builtin_clz(usable_sz);
1c01151a:	8d2ff0ef          	jal	ra,1c0105ec <__clzsi2>
1c01151e:	47fd                	li	a5,31
1c011520:	40a78533          	sub	a0,a5,a0
	if (b->next == 0U) {
1c011524:	00251713          	slli	a4,a0,0x2
1c011528:	9722                	add	a4,a4,s0
1c01152a:	01072803          	lw	a6,16(a4)
	void *cmem = &buf[c];
1c01152e:	00349793          	slli	a5,s1,0x3
		((uint16_t *)cmem)[f] = val;
1c011532:	00478593          	addi	a1,a5,4
1c011536:	01049693          	slli	a3,s1,0x10
1c01153a:	0799                	addi	a5,a5,6
1c01153c:	95a2                	add	a1,a1,s0
1c01153e:	97a2                	add	a5,a5,s0
1c011540:	82c1                	srli	a3,a3,0x10
1c011542:	02081263          	bnez	a6,1c011566 <free_list_add+0x5a>
		h->avail_buckets |= BIT(bidx);
1c011546:	4605                	li	a2,1
1c011548:	00a61533          	sll	a0,a2,a0
1c01154c:	4450                	lw	a2,12(s0)
1c01154e:	8e49                	or	a2,a2,a0
1c011550:	c450                	sw	a2,12(s0)
		b->next = c;
1c011552:	cb04                	sw	s1,16(a4)
1c011554:	00d59023          	sh	a3,0(a1)
1c011558:	00d79023          	sh	a3,0(a5)
		free_list_add_bidx(h, c, bidx);
	}
}
1c01155c:	40b2                	lw	ra,12(sp)
1c01155e:	4422                	lw	s0,8(sp)
1c011560:	4492                	lw	s1,4(sp)
1c011562:	0141                	addi	sp,sp,16
1c011564:	8082                	ret
	void *cmem = &buf[c];
1c011566:	00381713          	slli	a4,a6,0x3
		return ((uint16_t *)cmem)[f];
1c01156a:	0711                	addi	a4,a4,4
1c01156c:	9722                	add	a4,a4,s0
1c01156e:	00075603          	lhu	a2,0(a4)
		((uint16_t *)cmem)[f] = val;
1c011572:	00c59023          	sh	a2,0(a1)
1c011576:	060e                	slli	a2,a2,0x3
1c011578:	01079023          	sh	a6,0(a5)
1c01157c:	9432                	add	s0,s0,a2
1c01157e:	00d41323          	sh	a3,6(s0)
1c011582:	00d71023          	sh	a3,0(a4)
1c011586:	bfd9                	j	1c01155c <free_list_add+0x50>

1c011588 <sys_heap_init>:
	}
	return ptr2;
}

void sys_heap_init(struct sys_heap *heap, void *mem, size_t bytes)
{
1c011588:	1101                	addi	sp,sp,-32
		__ASSERT(bytes / CHUNK_UNIT <= 0x7fffffffU, "heap size is too big");
	}

	/* Reserve the end marker chunk's header */
	__ASSERT(bytes > heap_footer_bytes(bytes), "heap size is too small");
	bytes -= heap_footer_bytes(bytes);
1c01158a:	1671                	addi	a2,a2,-4
{
1c01158c:	cc22                	sw	s0,24(sp)
1c01158e:	ca26                	sw	s1,20(sp)

	/* Round the start up, the end down */
	uintptr_t addr = ROUND_UP(mem, CHUNK_UNIT);
	uintptr_t end = ROUND_DOWN((uint8_t *)mem + bytes, CHUNK_UNIT);
1c011590:	00c58433          	add	s0,a1,a2
	uintptr_t addr = ROUND_UP(mem, CHUNK_UNIT);
1c011594:	00758493          	addi	s1,a1,7
1c011598:	98e1                	andi	s1,s1,-8
	uintptr_t end = ROUND_DOWN((uint8_t *)mem + bytes, CHUNK_UNIT);
1c01159a:	9861                	andi	s0,s0,-8
{
1c01159c:	ce06                	sw	ra,28(sp)
1c01159e:	c84a                	sw	s2,16(sp)
1c0115a0:	c64e                	sw	s3,12(sp)
	chunksz_t heap_sz = (end - addr) / CHUNK_UNIT;
1c0115a2:	8c05                	sub	s0,s0,s1
1c0115a4:	00345993          	srli	s3,s0,0x3

	CHECK(end > addr);
	__ASSERT(heap_sz > chunksz(sizeof(struct z_heap)), "heap size is too small");

	struct z_heap *h = (struct z_heap *)addr;
	heap->heap = h;
1c0115a8:	c104                	sw	s1,0(a0)
	h->end_chunk = heap_sz;
1c0115aa:	0134a423          	sw	s3,8(s1)
	h->avail_buckets = 0;
1c0115ae:	0004a623          	sw	zero,12(s1)
	return 31 - __builtin_clz(usable_sz);
1c0115b2:	854e                	mv	a0,s3
1c0115b4:	838ff0ef          	jal	ra,1c0105ec <__clzsi2>
#if CONFIG_SYS_HEAP_ARRAY_SIZE
	sys_heap_array_save(heap);
#endif

	int nb_buckets = bucket_idx(h, heap_sz) + 1;
	chunksz_t chunk0_size = chunksz(sizeof(struct z_heap) +
1c0115b8:	02400913          	li	s2,36
1c0115bc:	40a90933          	sub	s2,s2,a0
	int nb_buckets = bucket_idx(h, heap_sz) + 1;
1c0115c0:	02000613          	li	a2,32
1c0115c4:	8e09                	sub	a2,a2,a0
	chunksz_t chunk0_size = chunksz(sizeof(struct z_heap) +
1c0115c6:	090a                	slli	s2,s2,0x2
				     nb_buckets * sizeof(struct z_heap_bucket));

	__ASSERT(chunk0_size + min_chunk_size(h) <= heap_sz, "heap size is too small");

	for (int i = 0; i < nb_buckets; i++) {
		h->buckets[i].next = 0;
1c0115c8:	4581                	li	a1,0
1c0115ca:	01048513          	addi	a0,s1,16
	return (bytes + CHUNK_UNIT - 1U) / CHUNK_UNIT;
1c0115ce:	091d                	addi	s2,s2,7
1c0115d0:	060a                	slli	a2,a2,0x2
1c0115d2:	75b020ef          	jal	ra,1c01452c <memset>
1c0115d6:	00395913          	srli	s2,s2,0x3
	chunk_set(h, c, SIZE_AND_USED, size << 1);
1c0115da:	00191793          	slli	a5,s2,0x1
			((uint16_t *)cmem)[SIZE_AND_USED] |= 1U;
1c0115de:	0017e793          	ori	a5,a5,1
1c0115e2:	00f49123          	sh	a5,2(s1)
	set_chunk_size(h, 0, chunk0_size);
	set_left_chunk_size(h, 0, 0);
	set_chunk_used(h, 0, true);

	/* chunk containing the free heap */
	set_chunk_size(h, chunk0_size, heap_sz - chunk0_size);
1c0115e6:	41298733          	sub	a4,s3,s2
	void *cmem = &buf[c];
1c0115ea:	00391793          	slli	a5,s2,0x3
		((uint16_t *)cmem)[f] = val;
1c0115ee:	00049023          	sh	zero,0(s1)
1c0115f2:	97a6                	add	a5,a5,s1
	chunk_set(h, c, SIZE_AND_USED, size << 1);
1c0115f4:	00171693          	slli	a3,a4,0x1
		((uint16_t *)cmem)[f] = val;
1c0115f8:	00d79123          	sh	a3,2(a5)
1c0115fc:	01279023          	sh	s2,0(a5)
1c011600:	9426                	add	s0,s0,s1
	void *cmem = &buf[c];
1c011602:	098e                	slli	s3,s3,0x3
		((uint16_t *)cmem)[f] = val;
1c011604:	00041123          	sh	zero,2(s0)
1c011608:	00e41023          	sh	a4,0(s0)
	void *cmem = &buf[c];
1c01160c:	99a6                	add	s3,s3,s1
			((uint16_t *)cmem)[SIZE_AND_USED] |= 1U;
1c01160e:	0029d783          	lhu	a5,2(s3)
	/* the end marker chunk */
	set_chunk_size(h, heap_sz, 0);
	set_left_chunk_size(h, heap_sz, heap_sz - chunk0_size);
	set_chunk_used(h, heap_sz, true);

	free_list_add(h, chunk0_size);
1c011612:	85ca                	mv	a1,s2
1c011614:	8526                	mv	a0,s1
1c011616:	0017e793          	ori	a5,a5,1
1c01161a:	00f99123          	sh	a5,2(s3)
}
1c01161e:	4462                	lw	s0,24(sp)
1c011620:	40f2                	lw	ra,28(sp)
1c011622:	44d2                	lw	s1,20(sp)
1c011624:	4942                	lw	s2,16(sp)
1c011626:	49b2                	lw	s3,12(sp)
1c011628:	6105                	addi	sp,sp,32
	free_list_add(h, chunk0_size);
1c01162a:	b5cd                	j	1c01150c <free_list_add>

1c01162c <arch_printk_char_out>:
{
	ARG_UNUSED(c);

	/* do nothing */
	return 0;
}
1c01162c:	4501                	li	a0,0
1c01162e:	8082                	ret

1c011630 <char_out>:
}

static int char_out(int c, void *ctx_p)
{
	ARG_UNUSED(ctx_p);
	return _char_out(c);
1c011630:	1c0167b7          	lui	a5,0x1c016
1c011634:	1607a783          	lw	a5,352(a5) # 1c016160 <_char_out>
1c011638:	8782                	jr	a5

1c01163a <__printk_hook_install>:
	_char_out = fn;
1c01163a:	1c0167b7          	lui	a5,0x1c016
1c01163e:	16a7a023          	sw	a0,352(a5) # 1c016160 <_char_out>
}
1c011642:	8082                	ret

1c011644 <vprintk>:
}

void vprintk(const char *fmt, va_list ap)
{
1c011644:	7179                	addi	sp,sp,-48
#ifdef CONFIG_PRINTK_SYNC
		k_spinlock_key_t key = k_spin_lock(&lock);
#endif

#ifdef CONFIG_PICOLIBC
		FILE console = FDEV_SETUP_STREAM((int(*)(char, FILE *))char_out,
1c011646:	c802                	sw	zero,16(sp)
1c011648:	4789                	li	a5,2
1c01164a:	00f10823          	sb	a5,16(sp)
1c01164e:	1c0117b7          	lui	a5,0x1c011
{
1c011652:	862e                	mv	a2,a1
		FILE console = FDEV_SETUP_STREAM((int(*)(char, FILE *))char_out,
1c011654:	63078793          	addi	a5,a5,1584 # 1c011630 <char_out>
						 NULL, NULL, _FDEV_SETUP_WRITE);
		(void) vfprintf(&console, fmt, ap);
1c011658:	85aa                	mv	a1,a0
1c01165a:	0068                	addi	a0,sp,12
{
1c01165c:	d606                	sw	ra,44(sp)
		FILE console = FDEV_SETUP_STREAM((int(*)(char, FILE *))char_out,
1c01165e:	c602                	sw	zero,12(sp)
1c011660:	cc02                	sw	zero,24(sp)
1c011662:	ce02                	sw	zero,28(sp)
1c011664:	ca3e                	sw	a5,20(sp)
		(void) vfprintf(&console, fmt, ap);
1c011666:	e26ff0ef          	jal	ra,1c010c8c <__l_vfprintf>

#ifdef CONFIG_PRINTK_SYNC
		k_spin_unlock(&lock, key);
#endif
	}
}
1c01166a:	50b2                	lw	ra,44(sp)
1c01166c:	6145                	addi	sp,sp,48
1c01166e:	8082                	ret

1c011670 <printk>:
 *
 * @param fmt formatted string to output
 */

void printk(const char *fmt, ...)
{
1c011670:	7139                	addi	sp,sp,-64
1c011672:	d22e                	sw	a1,36(sp)
	va_list ap;

	va_start(ap, fmt);
1c011674:	104c                	addi	a1,sp,36
{
1c011676:	ce06                	sw	ra,28(sp)
1c011678:	d432                	sw	a2,40(sp)
1c01167a:	d636                	sw	a3,44(sp)
1c01167c:	d83a                	sw	a4,48(sp)
1c01167e:	da3e                	sw	a5,52(sp)
1c011680:	dc42                	sw	a6,56(sp)
1c011682:	de46                	sw	a7,60(sp)
	va_start(ap, fmt);
1c011684:	c62e                	sw	a1,12(sp)

	vprintk(fmt, ap);
1c011686:	3f7d                	jal	1c011644 <vprintk>

	va_end(ap);
}
1c011688:	40f2                	lw	ra,28(sp)
1c01168a:	6121                	addi	sp,sp,64
1c01168c:	8082                	ret

1c01168e <z_thread_entry>:
 * This routine does not return, and is marked as such so the compiler won't
 * generate preamble code that is only used by functions that actually return.
 */
FUNC_NORETURN void z_thread_entry(k_thread_entry_t entry,
				 void *p1, void *p2, void *p3)
{
1c01168e:	1101                	addi	sp,sp,-32
1c011690:	ca26                	sw	s1,20(sp)
1c011692:	c84a                	sw	s2,16(sp)
1c011694:	ce06                	sw	ra,28(sp)
1c011696:	cc22                	sw	s0,24(sp)
1c011698:	84aa                	mv	s1,a0
1c01169a:	892e                	mv	s2,a1
1c01169c:	c632                	sw	a2,12(sp)
1c01169e:	c436                	sw	a3,8(sp)
	if (z_syscall_trap()) {
		return (k_tid_t) arch_syscall_invoke0(K_SYSCALL_K_SCHED_CURRENT_THREAD_QUERY);
	}
#endif
	compiler_barrier();
	return z_impl_k_sched_current_thread_query();
1c0116a0:	0b9020ef          	jal	ra,1c013f58 <z_impl_k_sched_current_thread_query>

	sys_rand_get((uint8_t *)&stack_guard, sizeof(stack_guard));
	__stack_chk_guard = stack_guard;
	__stack_chk_guard <<= 8;
#endif	/* CONFIG_STACK_CANARIES */
	entry(p1, p2, p3);
1c0116a4:	4622                	lw	a2,8(sp)
1c0116a6:	45b2                	lw	a1,12(sp)
	z_tls_current = k_sched_current_thread_query();
1c0116a8:	00a22023          	sw	a0,0(tp) # 0 <vfscanf>
	entry(p1, p2, p3);
1c0116ac:	854a                	mv	a0,s2
1c0116ae:	9482                	jalr	s1
#ifdef CONFIG_CURRENT_THREAD_USE_TLS

	/* Thread-local cache of current thread ID, set in z_thread_entry() */
	extern Z_THREAD_LOCAL k_tid_t z_tls_current;

	return z_tls_current;
1c0116b0:	00022503          	lw	a0,0(tp) # 0 <vfscanf>
		(void) arch_syscall_invoke1(parm0.x, K_SYSCALL_K_THREAD_ABORT);
		return;
	}
#endif
	compiler_barrier();
	z_impl_k_thread_abort(thread);
1c0116b4:	1f7020ef          	jal	ra,1c0140aa <z_impl_k_thread_abort>

1c0116b8 <_ConfigAbsSyms>:
GEN_ABSOLUTE_SYM_KCONFIG(CONFIG_WARN_DEPRECATED, 1);
GEN_ABSOLUTE_SYM_KCONFIG(CONFIG_TAINT, 1);
GEN_ABSOLUTE_SYM_KCONFIG(CONFIG_ENFORCE_ZEPHYR_STDINT, 1);
GEN_ABSOLUTE_SYM_KCONFIG(CONFIG_LEGACY_GENERATED_INCLUDE_PATH, 1);

GEN_ABS_SYM_END
1c0116b8:	8082                	ret

1c0116ba <arch_irq_enable>:
#ifdef CONFIG_RISCV_SOC_HAS_CUSTOM_IRQ_LOCK_OPS
	return z_soc_irq_lock();
#else
	unsigned int key;

	__asm__ volatile ("csrrc %0, mstatus, %1"
1c0116ba:	300477f3          	csrrci	a5,mstatus,8
#include <soc.h>

void arch_irq_enable(unsigned int irq)
{
	unsigned int key = irq_lock();
	PULP_IRQ_MASK_SET = (1 << irq);
1c0116be:	4705                	li	a4,1
1c0116c0:	00a71533          	sll	a0,a4,a0
1c0116c4:	1a109737          	lui	a4,0x1a109
1c0116c8:	c348                	sw	a0,4(a4)
#ifdef CONFIG_RISCV_SOC_HAS_CUSTOM_IRQ_LOCK_OPS
	z_soc_irq_unlock(key);
#else
	__asm__ volatile ("csrs mstatus, %0"
			  :
			  : "r" (key & MSTATUS_IEN)
1c0116ca:	8ba1                	andi	a5,a5,8
	__asm__ volatile ("csrs mstatus, %0"
1c0116cc:	3007a073          	csrs	mstatus,a5
	irq_unlock(key);
};
1c0116d0:	8082                	ret

1c0116d2 <sys_clock_driver_init>:
	accumulated_cycle_count += CYC_PER_TICK;
	sys_clock_announce(1);
}

static int sys_clock_driver_init(void)
{
1c0116d2:	1141                	addi	sp,sp,-16
1c0116d4:	c606                	sw	ra,12(sp)
	IRQ_CONNECT(PULP_TIMER_LO_IRQ, 0, puppy_timer_irq_handler, NULL, 0);

	timer->start_lo = 0x0;
1c0116d6:	1a10b7b7          	lui	a5,0x1a10b
1c0116da:	0007ac23          	sw	zero,24(a5) # 1a10b018 <CONFIG_TIMER_RANDOM_INITIAL_STATE+0x12b4e303>
	timer->reset_lo = 0x1;
1c0116de:	4705                	li	a4,1
1c0116e0:	d398                	sw	a4,32(a5)

	while (timer->cfg_lo & BIT(1))
1c0116e2:	4398                	lw	a4,0(a5)
1c0116e4:	8b09                	andi	a4,a4,2
1c0116e6:	ff75                	bnez	a4,1c0116e2 <sys_clock_driver_init+0x10>
		;

	timer->cfg_lo = 0x14;
1c0116e8:	4751                	li	a4,20
1c0116ea:	c398                	sw	a4,0(a5)
	timer->cmp_lo = CYC_PER_TICK - 1UL;
1c0116ec:	27f00713          	li	a4,639
1c0116f0:	cb98                	sw	a4,16(a5)
	timer->cnt_lo = 0x0;
1c0116f2:	0007a423          	sw	zero,8(a5)

	timer->start_lo = 0x1;
1c0116f6:	4705                	li	a4,1
	irq_enable(PULP_TIMER_LO_IRQ);
1c0116f8:	4529                	li	a0,10
	timer->start_lo = 0x1;
1c0116fa:	cf98                	sw	a4,24(a5)
	irq_enable(PULP_TIMER_LO_IRQ);
1c0116fc:	3f7d                	jal	1c0116ba <arch_irq_enable>

	return 0;
}
1c0116fe:	40b2                	lw	ra,12(sp)
1c011700:	4501                	li	a0,0
1c011702:	0141                	addi	sp,sp,16
1c011704:	8082                	ret

1c011706 <puppy_timer_irq_handler>:
	accumulated_cycle_count += CYC_PER_TICK;
1c011706:	1c0165b7          	lui	a1,0x1c016
1c01170a:	1985a803          	lw	a6,408(a1) # 1c016198 <accumulated_cycle_count>
1c01170e:	19c5a883          	lw	a7,412(a1)
1c011712:	28080513          	addi	a0,a6,640
1c011716:	01053633          	sltu	a2,a0,a6
1c01171a:	18a5ac23          	sw	a0,408(a1)
1c01171e:	011607b3          	add	a5,a2,a7
	sys_clock_announce(1);
1c011722:	4505                	li	a0,1
	accumulated_cycle_count += CYC_PER_TICK;
1c011724:	18f5ae23          	sw	a5,412(a1)
	sys_clock_announce(1);
1c011728:	4fd0206f          	j	1c014424 <sys_clock_announce>

1c01172c <sys_clock_elapsed>:
}
1c01172c:	4501                	li	a0,0
1c01172e:	8082                	ret

1c011730 <puppy_event_irq_handler>:
} event_desc_s;

static volatile event_desc_s callbacks[SOC_MAX_NUM_EVENT_CALLBACKS];

static void puppy_event_irq_handler(void *unused)
{
1c011730:	1101                	addi	sp,sp,-32
1c011732:	ce06                	sw	ra,28(sp)
1c011734:	cc22                	sw	s0,24(sp)
1c011736:	ca26                	sw	s1,20(sp)
1c011738:	c84a                	sw	s2,16(sp)
1c01173a:	c64e                	sw	s3,12(sp)
1c01173c:	c452                	sw	s4,8(sp)
	__asm__ volatile ("csrrc %0, mstatus, %1"
1c01173e:	300474f3          	csrrci	s1,mstatus,8
	unsigned int key = irq_lock();
	uint32_t event_num;
	int i;
	ARG_UNUSED(unused);
	event_num = PULP_REG(PULP_IRQ_FIFO_DATA_GET_REG);
1c011742:	1a1097b7          	lui	a5,0x1a109
1c011746:	0247aa03          	lw	s4,36(a5) # 1a109024 <CONFIG_TIMER_RANDOM_INITIAL_STATE+0x12b4c30f>

	for (i = 0; i < SOC_MAX_NUM_EVENT_CALLBACKS; i++) {
		if (callbacks[i].func != NULL) {
1c01174a:	1c016937          	lui	s2,0x1c016
	for (i = 0; i < SOC_MAX_NUM_EVENT_CALLBACKS; i++) {
1c01174e:	4401                	li	s0,0
		if (callbacks[i].func != NULL) {
1c011750:	39890913          	addi	s2,s2,920 # 1c016398 <callbacks>
	for (i = 0; i < SOC_MAX_NUM_EVENT_CALLBACKS; i++) {
1c011754:	02000993          	li	s3,32
		if (callbacks[i].func != NULL) {
1c011758:	00341793          	slli	a5,s0,0x3
1c01175c:	97ca                	add	a5,a5,s2
1c01175e:	4398                	lw	a4,0(a5)
1c011760:	c709                	beqz	a4,1c01176a <puppy_event_irq_handler+0x3a>
			callbacks[i].func(event_num, callbacks[i].userdata);
1c011762:	4398                	lw	a4,0(a5)
1c011764:	43cc                	lw	a1,4(a5)
1c011766:	8552                	mv	a0,s4
1c011768:	9702                	jalr	a4
	for (i = 0; i < SOC_MAX_NUM_EVENT_CALLBACKS; i++) {
1c01176a:	0405                	addi	s0,s0,1
1c01176c:	ff3416e3          	bne	s0,s3,1c011758 <puppy_event_irq_handler+0x28>
			  : "r" (key & MSTATUS_IEN)
1c011770:	88a1                	andi	s1,s1,8
	__asm__ volatile ("csrs mstatus, %0"
1c011772:	3004a073          	csrs	mstatus,s1
		}
	}
	irq_unlock(key);
}
1c011776:	40f2                	lw	ra,28(sp)
1c011778:	4462                	lw	s0,24(sp)
1c01177a:	44d2                	lw	s1,20(sp)
1c01177c:	4942                	lw	s2,16(sp)
1c01177e:	49b2                	lw	s3,12(sp)
1c011780:	4a22                	lw	s4,8(sp)
1c011782:	6105                	addi	sp,sp,32
1c011784:	8082                	ret

1c011786 <sys_event_init>:
	return ret;
}

/* Initialize SoC events status and enable IRQ. */
int sys_event_init(void)
{
1c011786:	1141                	addi	sp,sp,-16
1c011788:	c606                	sw	ra,12(sp)
	__asm__ volatile ("csrrc %0, mstatus, %1"
1c01178a:	300476f3          	csrrci	a3,mstatus,8
	unsigned int key = irq_lock();
	unsigned int i;

	for (i = 0UL; i < SOC_MAX_NUM_EVENT_CALLBACKS; i++) {
		callbacks[i].func = NULL;
1c01178e:	1c016637          	lui	a2,0x1c016
	for (i = 0UL; i < SOC_MAX_NUM_EVENT_CALLBACKS; i++) {
1c011792:	4781                	li	a5,0
		callbacks[i].func = NULL;
1c011794:	39860613          	addi	a2,a2,920 # 1c016398 <callbacks>
	for (i = 0UL; i < SOC_MAX_NUM_EVENT_CALLBACKS; i++) {
1c011798:	02000593          	li	a1,32
		callbacks[i].func = NULL;
1c01179c:	00379713          	slli	a4,a5,0x3
1c0117a0:	9732                	add	a4,a4,a2
1c0117a2:	00072023          	sw	zero,0(a4) # 1a109000 <CONFIG_TIMER_RANDOM_INITIAL_STATE+0x12b4c2eb>
		callbacks[i].userdata = NULL;
1c0117a6:	00072223          	sw	zero,4(a4)
	for (i = 0UL; i < SOC_MAX_NUM_EVENT_CALLBACKS; i++) {
1c0117aa:	0785                	addi	a5,a5,1
1c0117ac:	feb798e3          	bne	a5,a1,1c01179c <sys_event_init+0x16>
	}
	for (i = 0UL; i < SOC_NB_EVENT_REGS; i++) {
		PULP_REG(PULP_EU_FC_MASK0_REG + 4UL * i) = 0xffffffff;
1c0117b0:	1a1067b7          	lui	a5,0x1a106
1c0117b4:	577d                	li	a4,-1
1c0117b6:	c3d8                	sw	a4,4(a5)
1c0117b8:	c798                	sw	a4,8(a5)
1c0117ba:	c7d8                	sw	a4,12(a5)
1c0117bc:	cb98                	sw	a4,16(a5)
1c0117be:	cbd8                	sw	a4,20(a5)
1c0117c0:	cf98                	sw	a4,24(a5)
1c0117c2:	cfd8                	sw	a4,28(a5)
1c0117c4:	d398                	sw	a4,32(a5)
			  : "r" (key & MSTATUS_IEN)
1c0117c6:	0086f793          	andi	a5,a3,8
	__asm__ volatile ("csrs mstatus, %0"
1c0117ca:	3007a073          	csrs	mstatus,a5
	}

	IRQ_CONNECT(PULP_SOC_EVENT_IRQ, 0, puppy_event_irq_handler, NULL, 0);

	irq_unlock(key);
	irq_enable(PULP_SOC_EVENT_IRQ);
1c0117ce:	4569                	li	a0,26
1c0117d0:	35ed                	jal	1c0116ba <arch_irq_enable>
	return 0;
}
1c0117d2:	40b2                	lw	ra,12(sp)
1c0117d4:	4501                	li	a0,0
1c0117d6:	0141                	addi	sp,sp,16
1c0117d8:	8082                	ret

1c0117da <z_log_minimal_printk>:
#include <zephyr/llext/symbol.h>

#define HEXDUMP_BYTES_IN_LINE 8U

void z_log_minimal_printk(const char *fmt, ...)
{
1c0117da:	7139                	addi	sp,sp,-64
1c0117dc:	d22e                	sw	a1,36(sp)
	va_list ap;

	va_start(ap, fmt);
1c0117de:	104c                	addi	a1,sp,36
{
1c0117e0:	ce06                	sw	ra,28(sp)
1c0117e2:	d432                	sw	a2,40(sp)
1c0117e4:	d636                	sw	a3,44(sp)
1c0117e6:	d83a                	sw	a4,48(sp)
1c0117e8:	da3e                	sw	a5,52(sp)
1c0117ea:	dc42                	sw	a6,56(sp)
1c0117ec:	de46                	sw	a7,60(sp)
	va_start(ap, fmt);
1c0117ee:	c62e                	sw	a1,12(sp)
	vprintk(fmt, ap);
1c0117f0:	3d91                	jal	1c011644 <vprintk>
	va_end(ap);
}
1c0117f2:	40f2                	lw	ra,28(sp)
1c0117f4:	6121                	addi	sp,sp,64
1c0117f6:	8082                	ret

1c0117f8 <sys_trace_idle>:

__weak void sys_trace_isr_exit(void) {}

__weak void sys_trace_isr_exit_to_scheduler(void) {}

__weak void sys_trace_idle(void)
1c0117f8:	8082                	ret

1c0117fa <sys_trace_idle_exit>:
	if (IS_ENABLED(CONFIG_CPU_LOAD)) {
		cpu_load_on_enter_idle();
	}
}

__weak void sys_trace_idle_exit(void)
1c0117fa:	8082                	ret

1c0117fc <arch_early_memset>:
 * may override this with their own safe implementation.
 */
__boot_func
void __weak arch_early_memset(void *dst, int c, size_t n)
{
	(void) memset(dst, c, n);
1c0117fc:	5310206f          	j	1c01452c <memset>

1c011800 <arch_bss_zero>:
{
	if (IS_ENABLED(CONFIG_SKIP_BSS_CLEAR)) {
		return;
	}

	arch_early_memset(__bss_start, 0, __bss_end - __bss_start);
1c011800:	1c016537          	lui	a0,0x1c016
1c011804:	1c0167b7          	lui	a5,0x1c016
1c011808:	19850613          	addi	a2,a0,408 # 1c016198 <accumulated_cycle_count>
1c01180c:	4ec78793          	addi	a5,a5,1260 # 1c0164ec <_sched_spinlock>
1c011810:	40c78633          	sub	a2,a5,a2
1c011814:	4581                	li	a1,0
1c011816:	19850513          	addi	a0,a0,408
1c01181a:	b7cd                	j	1c0117fc <arch_early_memset>

1c01181c <arch_cpu_idle>:
#include <zephyr/irq.h>
#include <zephyr/tracing/tracing.h>

#ifndef CONFIG_ARCH_HAS_CUSTOM_CPU_IDLE
void arch_cpu_idle(void)
{
1c01181c:	1141                	addi	sp,sp,-16
1c01181e:	c606                	sw	ra,12(sp)
	sys_trace_idle();
1c011820:	3fe1                	jal	1c0117f8 <sys_trace_idle>
	__asm__ volatile("wfi");
1c011822:	10500073          	wfi
	sys_trace_idle_exit();
1c011826:	3fd1                	jal	1c0117fa <sys_trace_idle_exit>
1c011828:	47a1                	li	a5,8
1c01182a:	3007a073          	csrs	mstatus,a5
	irq_unlock(MSTATUS_IEN);
}
1c01182e:	40b2                	lw	ra,12(sp)
1c011830:	0141                	addi	sp,sp,16
1c011832:	8082                	ret

1c011834 <z_riscv_get_sp_before_exc>:
		sp = esf->sp;
	}
#endif

	return sp;
}
1c011834:	07050513          	addi	a0,a0,112
1c011838:	8082                	ret

1c01183a <z_riscv_fatal_error_csf>:
	z_riscv_fatal_error_csf(reason, esf, NULL);
}

FUNC_NORETURN void z_riscv_fatal_error_csf(unsigned int reason, const struct arch_esf *esf,
					   const _callee_saved_t *csf)
{
1c01183a:	7179                	addi	sp,sp,-48
1c01183c:	d422                	sw	s0,40(sp)
1c01183e:	d226                	sw	s1,36(sp)
1c011840:	d04a                	sw	s2,32(sp)
1c011842:	d606                	sw	ra,44(sp)
1c011844:	ce4e                	sw	s3,28(sp)
1c011846:	892a                	mv	s2,a0
1c011848:	842e                	mv	s0,a1
1c01184a:	84b2                	mv	s1,a2
	unsigned long mcause;

	__asm__ volatile("csrr %0, mcause" : "=r" (mcause));
1c01184c:	34202673          	csrr	a2,mcause

	mcause &= CONFIG_RISCV_MCAUSE_EXCEPTION_MASK;
	EXCEPTION_DUMP("");
1c011850:	1c0159b7          	lui	s3,0x1c015
	mcause &= CONFIG_RISCV_MCAUSE_EXCEPTION_MASK;
1c011854:	0606                	slli	a2,a2,0x1
1c011856:	8205                	srli	a2,a2,0x1
	EXCEPTION_DUMP("");
1c011858:	04500593          	li	a1,69
1c01185c:	ac498513          	addi	a0,s3,-1340 # 1c014ac4 <__clz_tab+0x190>
	mcause &= CONFIG_RISCV_MCAUSE_EXCEPTION_MASK;
1c011860:	c632                	sw	a2,12(sp)
	EXCEPTION_DUMP("");
1c011862:	3fa5                	jal	1c0117da <z_log_minimal_printk>
	return mcause_str[MIN(cause, ARRAY_SIZE(mcause_str) - 1)];
1c011864:	4632                	lw	a2,12(sp)
1c011866:	46c1                	li	a3,16
1c011868:	1c0157b7          	lui	a5,0x1c015
1c01186c:	4741                	li	a4,16
1c01186e:	00c6e363          	bltu	a3,a2,1c011874 <z_riscv_fatal_error_csf+0x3a>
1c011872:	8732                	mv	a4,a2
1c011874:	070a                	slli	a4,a4,0x2
1c011876:	e9878793          	addi	a5,a5,-360 # 1c014e98 <mcause_str.0>
1c01187a:	97ba                	add	a5,a5,a4
	EXCEPTION_DUMP(" mcause: %ld, %s", mcause, z_riscv_mcause_str(mcause));
1c01187c:	4394                	lw	a3,0(a5)
1c01187e:	1c015537          	lui	a0,0x1c015
1c011882:	04500593          	li	a1,69
1c011886:	acc50513          	addi	a0,a0,-1332 # 1c014acc <__clz_tab+0x198>
1c01188a:	3f81                	jal	1c0117da <z_log_minimal_printk>

#ifndef CONFIG_SOC_OPENISA_RV32M1
	unsigned long mtval;

	__asm__ volatile("csrr %0, mtval" : "=r" (mtval));
1c01188c:	34302673          	csrr	a2,mtval
	EXCEPTION_DUMP("  mtval: %lx", mtval);
1c011890:	1c015537          	lui	a0,0x1c015
1c011894:	04500593          	li	a1,69
1c011898:	ae450513          	addi	a0,a0,-1308 # 1c014ae4 <__clz_tab+0x1b0>
1c01189c:	3f3d                	jal	1c0117da <z_log_minimal_printk>
#endif /* CONFIG_SOC_OPENISA_RV32M1 */

#ifdef CONFIG_EXCEPTION_DEBUG
	if (esf != NULL) {
1c01189e:	0c040f63          	beqz	s0,1c01197c <z_riscv_fatal_error_csf+0x142>
		EXCEPTION_DUMP("     a0: " PR_REG "    t0: " PR_REG, esf->a0, esf->t0);
1c0118a2:	4054                	lw	a3,4(s0)
1c0118a4:	5010                	lw	a2,32(s0)
1c0118a6:	1c015537          	lui	a0,0x1c015
1c0118aa:	04500593          	li	a1,69
1c0118ae:	af850513          	addi	a0,a0,-1288 # 1c014af8 <__clz_tab+0x1c4>
1c0118b2:	3725                	jal	1c0117da <z_log_minimal_printk>
		EXCEPTION_DUMP("     a1: " PR_REG "    t1: " PR_REG, esf->a1, esf->t1);
1c0118b4:	4414                	lw	a3,8(s0)
1c0118b6:	5050                	lw	a2,36(s0)
1c0118b8:	1c015537          	lui	a0,0x1c015
1c0118bc:	04500593          	li	a1,69
1c0118c0:	b1c50513          	addi	a0,a0,-1252 # 1c014b1c <__clz_tab+0x1e8>
1c0118c4:	3f19                	jal	1c0117da <z_log_minimal_printk>
		EXCEPTION_DUMP("     a2: " PR_REG "    t2: " PR_REG, esf->a2, esf->t2);
1c0118c6:	4454                	lw	a3,12(s0)
1c0118c8:	5410                	lw	a2,40(s0)
1c0118ca:	1c015537          	lui	a0,0x1c015
1c0118ce:	04500593          	li	a1,69
1c0118d2:	b4050513          	addi	a0,a0,-1216 # 1c014b40 <__clz_tab+0x20c>
1c0118d6:	3711                	jal	1c0117da <z_log_minimal_printk>
#if defined(CONFIG_RISCV_ISA_RV32E)
		EXCEPTION_DUMP("     a3: " PR_REG, esf->a3);
		EXCEPTION_DUMP("     a4: " PR_REG, esf->a4);
		EXCEPTION_DUMP("     a5: " PR_REG, esf->a5);
#else
		EXCEPTION_DUMP("     a3: " PR_REG "    t3: " PR_REG, esf->a3, esf->t3);
1c0118d8:	4814                	lw	a3,16(s0)
1c0118da:	5450                	lw	a2,44(s0)
1c0118dc:	1c015537          	lui	a0,0x1c015
1c0118e0:	04500593          	li	a1,69
1c0118e4:	b6450513          	addi	a0,a0,-1180 # 1c014b64 <__clz_tab+0x230>
1c0118e8:	3dcd                	jal	1c0117da <z_log_minimal_printk>
		EXCEPTION_DUMP("     a4: " PR_REG "    t4: " PR_REG, esf->a4, esf->t4);
1c0118ea:	4854                	lw	a3,20(s0)
1c0118ec:	5810                	lw	a2,48(s0)
1c0118ee:	1c015537          	lui	a0,0x1c015
1c0118f2:	04500593          	li	a1,69
1c0118f6:	b8850513          	addi	a0,a0,-1144 # 1c014b88 <__clz_tab+0x254>
1c0118fa:	35c5                	jal	1c0117da <z_log_minimal_printk>
		EXCEPTION_DUMP("     a5: " PR_REG "    t5: " PR_REG, esf->a5, esf->t5);
1c0118fc:	4c14                	lw	a3,24(s0)
1c0118fe:	5850                	lw	a2,52(s0)
1c011900:	1c015537          	lui	a0,0x1c015
1c011904:	04500593          	li	a1,69
1c011908:	bac50513          	addi	a0,a0,-1108 # 1c014bac <__clz_tab+0x278>
1c01190c:	35f9                	jal	1c0117da <z_log_minimal_printk>
		EXCEPTION_DUMP("     a6: " PR_REG "    t6: " PR_REG, esf->a6, esf->t6);
1c01190e:	4c54                	lw	a3,28(s0)
1c011910:	5c10                	lw	a2,56(s0)
1c011912:	1c015537          	lui	a0,0x1c015
1c011916:	04500593          	li	a1,69
1c01191a:	bd050513          	addi	a0,a0,-1072 # 1c014bd0 <__clz_tab+0x29c>
1c01191e:	3d75                	jal	1c0117da <z_log_minimal_printk>
		EXCEPTION_DUMP("     a7: " PR_REG, esf->a7);
1c011920:	5c50                	lw	a2,60(s0)
1c011922:	1c015537          	lui	a0,0x1c015
1c011926:	04500593          	li	a1,69
1c01192a:	bf450513          	addi	a0,a0,-1036 # 1c014bf4 <__clz_tab+0x2c0>
1c01192e:	3575                	jal	1c0117da <z_log_minimal_printk>
#endif /* CONFIG_RISCV_ISA_RV32E */
		EXCEPTION_DUMP("     sp: " PR_REG, z_riscv_get_sp_before_exc(esf));
1c011930:	1c015537          	lui	a0,0x1c015
1c011934:	07040613          	addi	a2,s0,112
1c011938:	04500593          	li	a1,69
1c01193c:	c0850513          	addi	a0,a0,-1016 # 1c014c08 <__clz_tab+0x2d4>
1c011940:	3d69                	jal	1c0117da <z_log_minimal_printk>
		EXCEPTION_DUMP("     ra: " PR_REG, esf->ra);
1c011942:	4010                	lw	a2,0(s0)
1c011944:	1c015537          	lui	a0,0x1c015
1c011948:	04500593          	li	a1,69
1c01194c:	c1c50513          	addi	a0,a0,-996 # 1c014c1c <__clz_tab+0x2e8>
1c011950:	3569                	jal	1c0117da <z_log_minimal_printk>
		EXCEPTION_DUMP("   mepc: " PR_REG, esf->mepc);
1c011952:	4030                	lw	a2,64(s0)
1c011954:	1c015537          	lui	a0,0x1c015
1c011958:	04500593          	li	a1,69
1c01195c:	c3050513          	addi	a0,a0,-976 # 1c014c30 <__clz_tab+0x2fc>
1c011960:	3dad                	jal	1c0117da <z_log_minimal_printk>
		EXCEPTION_DUMP("mstatus: " PR_REG, esf->mstatus);
1c011962:	4070                	lw	a2,68(s0)
1c011964:	1c015537          	lui	a0,0x1c015
1c011968:	04500593          	li	a1,69
1c01196c:	c4450513          	addi	a0,a0,-956 # 1c014c44 <__clz_tab+0x310>
1c011970:	35ad                	jal	1c0117da <z_log_minimal_printk>
		EXCEPTION_DUMP("");
1c011972:	04500593          	li	a1,69
1c011976:	ac498513          	addi	a0,s3,-1340
1c01197a:	3585                	jal	1c0117da <z_log_minimal_printk>
	}

	if (csf != NULL) {
1c01197c:	cca5                	beqz	s1,1c0119f4 <z_riscv_fatal_error_csf+0x1ba>
#if defined(CONFIG_RISCV_ISA_RV32E)
		EXCEPTION_DUMP("     s0: " PR_REG, csf->s0);
		EXCEPTION_DUMP("     s1: " PR_REG, csf->s1);
#else
		EXCEPTION_DUMP("     s0: " PR_REG "    s6: " PR_REG, csf->s0, csf->s6);
1c01197e:	5094                	lw	a3,32(s1)
1c011980:	4490                	lw	a2,8(s1)
1c011982:	1c015537          	lui	a0,0x1c015
1c011986:	04500593          	li	a1,69
1c01198a:	c5850513          	addi	a0,a0,-936 # 1c014c58 <__clz_tab+0x324>
1c01198e:	35b1                	jal	1c0117da <z_log_minimal_printk>
		EXCEPTION_DUMP("     s1: " PR_REG "    s7: " PR_REG, csf->s1, csf->s7);
1c011990:	50d4                	lw	a3,36(s1)
1c011992:	44d0                	lw	a2,12(s1)
1c011994:	1c015537          	lui	a0,0x1c015
1c011998:	04500593          	li	a1,69
1c01199c:	c7c50513          	addi	a0,a0,-900 # 1c014c7c <__clz_tab+0x348>
1c0119a0:	3d2d                	jal	1c0117da <z_log_minimal_printk>
		EXCEPTION_DUMP("     s2: " PR_REG "    s8: " PR_REG, csf->s2, csf->s8);
1c0119a2:	5494                	lw	a3,40(s1)
1c0119a4:	4890                	lw	a2,16(s1)
1c0119a6:	1c015537          	lui	a0,0x1c015
1c0119aa:	04500593          	li	a1,69
1c0119ae:	ca050513          	addi	a0,a0,-864 # 1c014ca0 <__clz_tab+0x36c>
1c0119b2:	3525                	jal	1c0117da <z_log_minimal_printk>
		EXCEPTION_DUMP("     s3: " PR_REG "    s9: " PR_REG, csf->s3, csf->s9);
1c0119b4:	54d4                	lw	a3,44(s1)
1c0119b6:	48d0                	lw	a2,20(s1)
1c0119b8:	1c015537          	lui	a0,0x1c015
1c0119bc:	04500593          	li	a1,69
1c0119c0:	cc450513          	addi	a0,a0,-828 # 1c014cc4 <__clz_tab+0x390>
1c0119c4:	3d19                	jal	1c0117da <z_log_minimal_printk>
		EXCEPTION_DUMP("     s4: " PR_REG "   s10: " PR_REG, csf->s4, csf->s10);
1c0119c6:	5894                	lw	a3,48(s1)
1c0119c8:	4c90                	lw	a2,24(s1)
1c0119ca:	1c015537          	lui	a0,0x1c015
1c0119ce:	04500593          	li	a1,69
1c0119d2:	ce850513          	addi	a0,a0,-792 # 1c014ce8 <__clz_tab+0x3b4>
1c0119d6:	3511                	jal	1c0117da <z_log_minimal_printk>
		EXCEPTION_DUMP("     s5: " PR_REG "   s11: " PR_REG, csf->s5, csf->s11);
1c0119d8:	58d4                	lw	a3,52(s1)
1c0119da:	4cd0                	lw	a2,28(s1)
1c0119dc:	1c015537          	lui	a0,0x1c015
1c0119e0:	04500593          	li	a1,69
1c0119e4:	d0c50513          	addi	a0,a0,-756 # 1c014d0c <__clz_tab+0x3d8>
1c0119e8:	3bcd                	jal	1c0117da <z_log_minimal_printk>
#endif /* CONFIG_RISCV_ISA_RV32E */
		EXCEPTION_DUMP("");
1c0119ea:	04500593          	li	a1,69
1c0119ee:	ac498513          	addi	a0,s3,-1340
1c0119f2:	33e5                	jal	1c0117da <z_log_minimal_printk>
	}
#endif /* CONFIG_EXCEPTION_DEBUG */

#ifdef CONFIG_EXCEPTION_STACK_TRACE
	z_riscv_unwind_stack(esf, csf);
1c0119f4:	85a6                	mv	a1,s1
1c0119f6:	8522                	mv	a0,s0
1c0119f8:	243d                	jal	1c011c26 <z_riscv_unwind_stack>
#endif /* CONFIG_EXCEPTION_STACK_TRACE */

	z_fatal_error(reason, esf);
1c0119fa:	85a2                	mv	a1,s0
1c0119fc:	854a                	mv	a0,s2
1c0119fe:	1d1010ef          	jal	ra,1c0133ce <z_fatal_error>

1c011a02 <z_riscv_fatal_error>:
{
1c011a02:	1141                	addi	sp,sp,-16
	z_riscv_fatal_error_csf(reason, esf, NULL);
1c011a04:	4601                	li	a2,0
{
1c011a06:	c606                	sw	ra,12(sp)
	z_riscv_fatal_error_csf(reason, esf, NULL);
1c011a08:	3d0d                	jal	1c01183a <z_riscv_fatal_error_csf>

1c011a0a <z_riscv_fault>:

	return false;
}

void z_riscv_fault(struct arch_esf *esf)
{
1c011a0a:	1141                	addi	sp,sp,-16
1c011a0c:	85aa                	mv	a1,a0
		z_riscv_pmp_stackguard_disable();
#endif /* CONFIG_PMP_STACK_GUARD */
		reason = K_ERR_STACK_CHK_FAIL;
	}

	z_riscv_fatal_error(reason, esf);
1c011a0e:	4501                	li	a0,0
{
1c011a10:	c606                	sw	ra,12(sp)
	z_riscv_fatal_error(reason, esf);
1c011a12:	3fc5                	jal	1c011a02 <z_riscv_fatal_error>

1c011a14 <z_irq_spurious>:
#endif

LOG_MODULE_DECLARE(os, CONFIG_KERNEL_LOG_LEVEL);

FUNC_NORETURN void z_irq_spurious(const void *unused)
{
1c011a14:	1141                	addi	sp,sp,-16
1c011a16:	c606                	sw	ra,12(sp)
#else
	unsigned long mcause;

	ARG_UNUSED(unused);

	mcause = csr_read(mcause);
1c011a18:	34202673          	csrr	a2,mcause

	mcause &= CONFIG_RISCV_MCAUSE_EXCEPTION_MASK;

	LOG_ERR("Spurious interrupt detected! IRQ: %ld", mcause);
1c011a1c:	1c015537          	lui	a0,0x1c015
	mcause &= CONFIG_RISCV_MCAUSE_EXCEPTION_MASK;
1c011a20:	0606                	slli	a2,a2,0x1
	LOG_ERR("Spurious interrupt detected! IRQ: %ld", mcause);
1c011a22:	04500593          	li	a1,69
1c011a26:	edc50513          	addi	a0,a0,-292 # 1c014edc <mcause_str.0+0x44>
1c011a2a:	8205                	srli	a2,a2,0x1
1c011a2c:	337d                	jal	1c0117da <z_log_minimal_printk>
		const struct device *save_dev = riscv_plic_get_dev();

		LOG_ERR("PLIC interrupt line causing the IRQ: %d (%p)", save_irq, save_dev);
	}
#endif
	z_riscv_fatal_error(K_ERR_SPURIOUS_IRQ, NULL);
1c011a2e:	4581                	li	a1,0
1c011a30:	4505                	li	a0,1
1c011a32:	3fc1                	jal	1c011a02 <z_riscv_fatal_error>

1c011a34 <z_prep_c>:
 *
 * This routine prepares for the execution of and runs C code.
 */

FUNC_NORETURN void z_prep_c(void)
{
1c011a34:	1141                	addi	sp,sp,-16
1c011a36:	c606                	sw	ra,12(sp)
	soc_prep_hook();

	arch_bss_zero();
1c011a38:	33e1                	jal	1c011800 <arch_bss_zero>
	soc_interrupt_init();
#endif
#if CONFIG_ARCH_CACHE
	arch_cache_init();
#endif
	z_cstart();
1c011a3a:	3c3010ef          	jal	ra,1c0135fc <z_cstart>

1c011a3e <arch_new_thread>:
#ifdef CONFIG_RISCV_SOC_CONTEXT_SAVE
	const struct soc_esf soc_esf_init = {SOC_ESF_INIT};
#endif

	/* Initial stack frame for thread */
	stack_init = (struct arch_esf *)Z_STACK_PTR_ALIGN(
1c011a3e:	f9060613          	addi	a2,a2,-112
 * @param ptr Proposed stack pointer address
 * @return Properly aligned stack pointer address
 */
static inline char *z_stack_ptr_align(char *ptr)
{
	return (char *)ROUND_DOWN(ptr, ARCH_STACK_PTR_ALIGN);
1c011a42:	9a41                	andi	a2,a2,-16
				);

	/* Setup the initial stack frame */
	stack_init->a0 = (unsigned long)entry;
	stack_init->a1 = (unsigned long)p1;
	stack_init->a2 = (unsigned long)p2;
1c011a44:	d61c                	sw	a5,40(a2)
	 *    restored following the MSTATUS value set within the thread stack;
	 * 2) the core will jump to z_thread_entry, as the program
	 *    counter will be restored following the MEPC value set within the
	 *    thread stack.
	 */
	stack_init->mstatus = MSTATUS_DEF_RESTORE;
1c011a46:	6789                	lui	a5,0x2
1c011a48:	88078793          	addi	a5,a5,-1920 # 1880 <CONFIG_LOG_RATELIMIT_INTERVAL_MS+0x4f8>
1c011a4c:	c27c                	sw	a5,68(a2)
		/* User thread */
		stack_init->mepc = (unsigned long)k_thread_user_mode_enter;

	} else {
		/* Supervisor thread */
		stack_init->mepc = (unsigned long)z_thread_entry;
1c011a4e:	1c0117b7          	lui	a5,0x1c011
1c011a52:	68e78793          	addi	a5,a5,1678 # 1c01168e <z_thread_entry>
1c011a56:	c23c                	sw	a5,64(a2)
#endif

	thread->callee_saved.sp = (unsigned long)stack_init;

	/* where to go when returning from z_riscv_switch() */
	thread->callee_saved.ra = (unsigned long)z_riscv_thread_start;
1c011a58:	1c0107b7          	lui	a5,0x1c010
	stack_init->a0 = (unsigned long)entry;
1c011a5c:	d214                	sw	a3,32(a2)
	stack_init->a1 = (unsigned long)p1;
1c011a5e:	d258                	sw	a4,36(a2)
	stack_init->a3 = (unsigned long)p3;
1c011a60:	03062623          	sw	a6,44(a2)
	stack_init->soc_context = soc_esf_init;
1c011a64:	04062623          	sw	zero,76(a2)
1c011a68:	04062823          	sw	zero,80(a2)
1c011a6c:	04062a23          	sw	zero,84(a2)
1c011a70:	04062c23          	sw	zero,88(a2)
1c011a74:	04062e23          	sw	zero,92(a2)
1c011a78:	06062023          	sw	zero,96(a2)
	thread->callee_saved.ra = (unsigned long)z_riscv_thread_start;
1c011a7c:	4e878793          	addi	a5,a5,1256 # 1c0104e8 <z_riscv_thread_start>
	thread->callee_saved.sp = (unsigned long)stack_init;
1c011a80:	d910                	sw	a2,48(a0)
	thread->callee_saved.ra = (unsigned long)z_riscv_thread_start;
1c011a82:	d95c                	sw	a5,52(a0)

	/* our switch handle is the thread pointer itself */
	thread->switch_handle = thread;
1c011a84:	08a52223          	sw	a0,132(a0)
}
1c011a88:	8082                	ret

1c011a8a <arch_coprocessors_disable>:
#ifdef CONFIG_FPU_SHARING
	return arch_float_disable(thread);
#else
	return -ENOTSUP;
#endif
}
1c011a8a:	f7a00513          	li	a0,-134
1c011a8e:	8082                	ret

1c011a90 <arch_tls_stack_setup>:
#include <kernel_tls.h>
#include <zephyr/app_memory/app_memdomain.h>
#include <zephyr/sys/util.h>

size_t arch_tls_stack_setup(struct k_thread *new_thread, char *stack_ptr)
{
1c011a90:	1101                	addi	sp,sp,-32
1c011a92:	c452                	sw	s4,8(sp)
1c011a94:	ca26                	sw	s1,20(sp)
1c011a96:	c64e                	sw	s3,12(sp)
 * @return Total size of TLS data/bss areas
 */
static inline size_t z_tls_data_size(void)
{
	return (size_t)(uintptr_t)__tdata_size +
	       (size_t)(uintptr_t)__tbss_size;
1c011a98:	00400493          	li	s1,4
	return (size_t)(uintptr_t)__tdata_size +
1c011a9c:	00000993          	li	s3,0
1c011aa0:	94ce                	add	s1,s1,s3
1c011aa2:	cc22                	sw	s0,24(sp)

	/*
	 * Since we are populating things backwards,
	 * setup the TLS data/bss area first.
	 */
	stack_ptr -= z_tls_data_size();
1c011aa4:	40958433          	sub	s0,a1,s1
 * @param dest Pointer to destination
 */
static inline void z_tls_copy(char *dest)
{
	/* Copy initialized data (tdata) */
	memcpy(dest, __tdata_start, (size_t)(uintptr_t)__tdata_size);
1c011aa8:	1c0155b7          	lui	a1,0x1c015
{
1c011aac:	c84a                	sw	s2,16(sp)
1c011aae:	00000613          	li	a2,0
1c011ab2:	892a                	mv	s2,a0
1c011ab4:	91858593          	addi	a1,a1,-1768 # 1c014918 <flash_nor_parameters>
1c011ab8:	8522                	mv	a0,s0
1c011aba:	ce06                	sw	ra,28(sp)
1c011abc:	24d020ef          	jal	ra,1c014508 <memcpy>

	/* Clear BSS data (tbss) */
	dest += (size_t)(uintptr_t)__tdata_size;
	memset(dest, 0, (size_t)(uintptr_t)__tbss_size);
1c011ac0:	01340533          	add	a0,s0,s3
1c011ac4:	00400613          	li	a2,4
1c011ac8:	4581                	li	a1,0
1c011aca:	263020ef          	jal	ra,1c01452c <memset>

	/*
	 * Set thread TLS pointer which is used in
	 * context switch to point to TLS area.
	 */
	new_thread->tls = POINTER_TO_UINT(stack_ptr);
1c011ace:	08892623          	sw	s0,140(s2)

	return z_tls_data_size();
}
1c011ad2:	40f2                	lw	ra,28(sp)
1c011ad4:	4462                	lw	s0,24(sp)
1c011ad6:	4942                	lw	s2,16(sp)
1c011ad8:	49b2                	lw	s3,12(sp)
1c011ada:	4a22                	lw	s4,8(sp)
1c011adc:	8526                	mv	a0,s1
1c011ade:	44d2                	lw	s1,20(sp)
1c011ae0:	6105                	addi	sp,sp,32
1c011ae2:	8082                	ret

1c011ae4 <in_stack_bound>:
static bool in_stack_bound(uintptr_t addr, const struct k_thread *const thread,
			   const struct arch_esf *esf)
{
	ARG_UNUSED(esf);

	if (!IS_ALIGNED(addr, sizeof(uintptr_t))) {
1c011ae4:	00357793          	andi	a5,a0,3
{
1c011ae8:	872a                	mv	a4,a0
	if (!IS_ALIGNED(addr, sizeof(uintptr_t))) {
1c011aea:	eb99                	bnez	a5,1c011b00 <in_stack_bound+0x1c>
	start = thread->stack_info.start;
1c011aec:	59fc                	lw	a5,116(a1)
	return (addr >= start) && (addr < end);
1c011aee:	4501                	li	a0,0
1c011af0:	00f76963          	bltu	a4,a5,1c011b02 <in_stack_bound+0x1e>
	end = Z_STACK_PTR_ALIGN(thread->stack_info.start + thread->stack_info.size);
1c011af4:	5db4                	lw	a3,120(a1)
1c011af6:	97b6                	add	a5,a5,a3
1c011af8:	9bc1                	andi	a5,a5,-16
	return (addr >= start) && (addr < end);
1c011afa:	00f73533          	sltu	a0,a4,a5
	if ((thread->base.user_options & K_USER) != 0) {
		return in_user_thread_stack_bound(addr, thread);
	}
#endif /* CONFIG_USERSPACE */

	return in_kernel_thread_stack_bound(addr, thread);
1c011afe:	8082                	ret
		return false;
1c011b00:	4501                	li	a0,0
}
1c011b02:	8082                	ret

1c011b04 <walk_stackframe>:
#else  /* !CONFIG_FRAME_POINTER */
register uintptr_t current_stack_pointer __asm__("sp");
static void walk_stackframe(riscv_stacktrace_cb cb, void *cookie, const struct k_thread *thread,
			    const struct arch_esf *esf, stack_verify_fn vrfy,
			    const _callee_saved_t *csf)
{
1c011b04:	7139                	addi	sp,sp,-64
1c011b06:	d84a                	sw	s2,48(sp)
1c011b08:	d64e                	sw	s3,44(sp)
1c011b0a:	d452                	sw	s4,40(sp)
1c011b0c:	d256                	sw	s5,36(sp)
1c011b0e:	d05a                	sw	s6,32(sp)
1c011b10:	de06                	sw	ra,60(sp)
1c011b12:	dc22                	sw	s0,56(sp)
1c011b14:	da26                	sw	s1,52(sp)
1c011b16:	ce5e                	sw	s7,28(sp)
1c011b18:	cc62                	sw	s8,24(sp)
1c011b1a:	ca66                	sw	s9,20(sp)
1c011b1c:	c86a                	sw	s10,16(sp)
1c011b1e:	c66e                	sw	s11,12(sp)
1c011b20:	89aa                	mv	s3,a0
1c011b22:	8a2e                	mv	s4,a1
1c011b24:	8ab2                	mv	s5,a2
1c011b26:	8936                	mv	s2,a3
1c011b28:	8b3a                	mv	s6,a4
	uintptr_t sp;
	uintptr_t ra;
	uintptr_t *ksp, last_ksp = 0;

	if (esf != NULL) {
1c011b2a:	c2a1                	beqz	a3,1c011b6a <walk_stackframe+0x66>
		/* Unwind the provided exception stack frame */
		sp = z_riscv_get_sp_before_exc(esf);
1c011b2c:	8536                	mv	a0,a3
1c011b2e:	3319                	jal	1c011834 <z_riscv_get_sp_before_exc>
		ra = esf->mepc;
1c011b30:	04092483          	lw	s1,64(s2)
		sp = z_riscv_get_sp_before_exc(esf);
1c011b34:	842a                	mv	s0,a0
	return (addr >= (uintptr_t)__text_region_start) && (addr < (uintptr_t)__text_region_end);
1c011b36:	1c010c37          	lui	s8,0x1c010
1c011b3a:	1c014cb7          	lui	s9,0x1c014
		sp = csf->sp;
		ra = csf->ra;
	}

	ksp = (uintptr_t *)sp;
	for (int i = 0; (i < MAX_STACK_FRAMES) && vrfy((uintptr_t)ksp, thread, esf) &&
1c011b3e:	4b81                	li	s7,0
	uintptr_t *ksp, last_ksp = 0;
1c011b40:	4d81                	li	s11,0
	return (addr >= (uintptr_t)__text_region_start) && (addr < (uintptr_t)__text_region_end);
1c011b42:	5b4c0c13          	addi	s8,s8,1460 # 1c0105b4 <__ashldi3>
1c011b46:	548c8c93          	addi	s9,s9,1352 # 1c014548 <__rodata_region_start>
	for (int i = 0; (i < MAX_STACK_FRAMES) && vrfy((uintptr_t)ksp, thread, esf) &&
1c011b4a:	4d21                	li	s10,8
1c011b4c:	864a                	mv	a2,s2
1c011b4e:	85d6                	mv	a1,s5
1c011b50:	8522                	mv	a0,s0
1c011b52:	9b02                	jalr	s6
1c011b54:	c939                	beqz	a0,1c011baa <walk_stackframe+0xa6>
1c011b56:	048dfa63          	bgeu	s11,s0,1c011baa <walk_stackframe+0xa6>
	return (addr >= (uintptr_t)__text_region_start) && (addr < (uintptr_t)__text_region_end);
1c011b5a:	0384fb63          	bgeu	s1,s8,1c011b90 <walk_stackframe+0x8c>
			 */
			i++;
		}
		last_ksp = (uintptr_t)ksp;
		/* Unwind to the previous frame */
		ra = ((struct arch_esf *)ksp++)->ra;
1c011b5e:	4004                	lw	s1,0(s0)
1c011b60:	00440793          	addi	a5,s0,4
{
1c011b64:	8da2                	mv	s11,s0
1c011b66:	843e                	mv	s0,a5
1c011b68:	b7d5                	j	1c011b4c <walk_stackframe+0x48>
	} else if ((csf == NULL) || (csf == &_current->callee_saved)) {
1c011b6a:	cb91                	beqz	a5,1c011b7e <walk_stackframe+0x7a>
1c011b6c:	1c016737          	lui	a4,0x1c016
1c011b70:	4cc70713          	addi	a4,a4,1228 # 1c0164cc <_kernel>
1c011b74:	4718                	lw	a4,8(a4)
1c011b76:	03070713          	addi	a4,a4,48
1c011b7a:	00e79863          	bne	a5,a4,1c011b8a <walk_stackframe+0x86>
		ra = (uintptr_t)walk_stackframe;
1c011b7e:	1c0124b7          	lui	s1,0x1c012
		sp = current_stack_pointer;
1c011b82:	840a                	mv	s0,sp
		ra = (uintptr_t)walk_stackframe;
1c011b84:	b0448493          	addi	s1,s1,-1276 # 1c011b04 <walk_stackframe>
1c011b88:	b77d                	j	1c011b36 <walk_stackframe+0x32>
		sp = csf->sp;
1c011b8a:	4380                	lw	s0,0(a5)
		ra = csf->ra;
1c011b8c:	43c4                	lw	s1,4(a5)
1c011b8e:	b765                	j	1c011b36 <walk_stackframe+0x32>
	return (addr >= (uintptr_t)__text_region_start) && (addr < (uintptr_t)__text_region_end);
1c011b90:	fd94f7e3          	bgeu	s1,s9,1c011b5e <walk_stackframe+0x5a>
			if (!cb(cookie, ra, POINTER_TO_UINT(ksp))) {
1c011b94:	8622                	mv	a2,s0
1c011b96:	85a6                	mv	a1,s1
1c011b98:	8552                	mv	a0,s4
1c011b9a:	9982                	jalr	s3
1c011b9c:	c519                	beqz	a0,1c011baa <walk_stackframe+0xa6>
			i++;
1c011b9e:	0b85                	addi	s7,s7,1
		ra = ((struct arch_esf *)ksp++)->ra;
1c011ba0:	4004                	lw	s1,0(s0)
1c011ba2:	00440793          	addi	a5,s0,4
	for (int i = 0; (i < MAX_STACK_FRAMES) && vrfy((uintptr_t)ksp, thread, esf) &&
1c011ba6:	fbab9fe3          	bne	s7,s10,1c011b64 <walk_stackframe+0x60>
	}
}
1c011baa:	50f2                	lw	ra,60(sp)
1c011bac:	5462                	lw	s0,56(sp)
1c011bae:	54d2                	lw	s1,52(sp)
1c011bb0:	5942                	lw	s2,48(sp)
1c011bb2:	59b2                	lw	s3,44(sp)
1c011bb4:	5a22                	lw	s4,40(sp)
1c011bb6:	5a92                	lw	s5,36(sp)
1c011bb8:	5b02                	lw	s6,32(sp)
1c011bba:	4bf2                	lw	s7,28(sp)
1c011bbc:	4c62                	lw	s8,24(sp)
1c011bbe:	4cd2                	lw	s9,20(sp)
1c011bc0:	4d42                	lw	s10,16(sp)
1c011bc2:	4db2                	lw	s11,12(sp)
1c011bc4:	6121                	addi	sp,sp,64
1c011bc6:	8082                	ret

1c011bc8 <print_trace_address>:
#define LOG_STACK_TRACE(idx, sfp, ra, name, offset)                                                \
	EXCEPTION_DUMP("     %2d: " SFP ": " PR_REG " ra: " PR_REG, idx, sfp, ra)
#endif /* CONFIG_SYMTAB */

static bool print_trace_address(void *arg, unsigned long ra, unsigned long sfp)
{
1c011bc8:	1141                	addi	sp,sp,-16
1c011bca:	c606                	sw	ra,12(sp)
#ifdef CONFIG_SYMTAB
	uint32_t offset = 0;
	const char *name = symtab_find_symbol_name(ra, &offset);
#endif /* CONFIG_SYMTAB */

	LOG_STACK_TRACE((*i)++, sfp, ra, name, offset);
1c011bcc:	411c                	lw	a5,0(a0)
{
1c011bce:	86b2                	mv	a3,a2
1c011bd0:	872e                	mv	a4,a1
	LOG_STACK_TRACE((*i)++, sfp, ra, name, offset);
1c011bd2:	00178613          	addi	a2,a5,1
1c011bd6:	c110                	sw	a2,0(a0)
1c011bd8:	1c015537          	lui	a0,0x1c015
1c011bdc:	f0850513          	addi	a0,a0,-248 # 1c014f08 <mcause_str.0+0x70>
1c011be0:	863e                	mv	a2,a5
1c011be2:	04500593          	li	a1,69
1c011be6:	3ed5                	jal	1c0117da <z_log_minimal_printk>

	return true;
}
1c011be8:	40b2                	lw	ra,12(sp)
1c011bea:	4505                	li	a0,1
1c011bec:	0141                	addi	sp,sp,16
1c011bee:	8082                	ret

1c011bf0 <in_fatal_stack_bound>:
	if (!IS_ALIGNED(addr, sizeof(uintptr_t))) {
1c011bf0:	00357693          	andi	a3,a0,3
{
1c011bf4:	872a                	mv	a4,a0
	if (!IS_ALIGNED(addr, sizeof(uintptr_t))) {
1c011bf6:	e695                	bnez	a3,1c011c22 <in_fatal_stack_bound+0x32>
	if ((thread == NULL) || arch_is_in_isr()) {
1c011bf8:	c591                	beqz	a1,1c011c04 <in_fatal_stack_bound+0x14>
	bool ret = arch_curr_cpu()->nested != 0U;

	arch_irq_unlock(key);
	return ret;
#else
	return _kernel.cpus[0].nested != 0U;
1c011bfa:	1c0167b7          	lui	a5,0x1c016
1c011bfe:	4cc7a783          	lw	a5,1228(a5) # 1c0164cc <_kernel>
1c011c02:	cf99                	beqz	a5,1c011c20 <in_fatal_stack_bound+0x30>
	start = (uintptr_t)K_KERNEL_STACK_BUFFER(z_interrupt_stacks[cpu_id]);
1c011c04:	1c0167b7          	lui	a5,0x1c016
1c011c08:	4f078793          	addi	a5,a5,1264 # 1c0164f0 <z_interrupt_stacks>
	return (addr >= start) && (addr < end);
1c011c0c:	4501                	li	a0,0
1c011c0e:	00f76b63          	bltu	a4,a5,1c011c24 <in_fatal_stack_bound+0x34>
	end = start + CONFIG_ISR_STACK_SIZE;
1c011c12:	6685                	lui	a3,0x1
1c011c14:	80068693          	addi	a3,a3,-2048 # 800 <CONFIG_ISR_STACK_SIZE>
1c011c18:	97b6                	add	a5,a5,a3
	return (addr >= start) && (addr < end);
1c011c1a:	00f73533          	sltu	a0,a4,a5
1c011c1e:	8082                	ret
	return in_stack_bound(addr, thread, esf);
1c011c20:	b5d1                	j	1c011ae4 <in_stack_bound>
		return false;
1c011c22:	4501                	li	a0,0
}
1c011c24:	8082                	ret

1c011c26 <z_riscv_unwind_stack>:

void z_riscv_unwind_stack(const struct arch_esf *esf, const _callee_saved_t *csf)
{
1c011c26:	7179                	addi	sp,sp,-48
1c011c28:	c62a                	sw	a0,12(sp)
	int i = 0;

	EXCEPTION_DUMP("call trace:");
1c011c2a:	1c015537          	lui	a0,0x1c015
{
1c011c2e:	c42e                	sw	a1,8(sp)
	EXCEPTION_DUMP("call trace:");
1c011c30:	f2c50513          	addi	a0,a0,-212 # 1c014f2c <mcause_str.0+0x94>
1c011c34:	04500593          	li	a1,69
{
1c011c38:	d606                	sw	ra,44(sp)
	int i = 0;
1c011c3a:	ce02                	sw	zero,28(sp)
	EXCEPTION_DUMP("call trace:");
1c011c3c:	3e79                	jal	1c0117da <z_log_minimal_printk>
	walk_stackframe(print_trace_address, &i, _current, esf, in_fatal_stack_bound, csf);
1c011c3e:	1c016637          	lui	a2,0x1c016
1c011c42:	4cc60613          	addi	a2,a2,1228 # 1c0164cc <_kernel>
1c011c46:	47a2                	lw	a5,8(sp)
1c011c48:	46b2                	lw	a3,12(sp)
1c011c4a:	4610                	lw	a2,8(a2)
1c011c4c:	1c012737          	lui	a4,0x1c012
1c011c50:	1c012537          	lui	a0,0x1c012
1c011c54:	bf070713          	addi	a4,a4,-1040 # 1c011bf0 <in_fatal_stack_bound>
1c011c58:	086c                	addi	a1,sp,28
1c011c5a:	bc850513          	addi	a0,a0,-1080 # 1c011bc8 <print_trace_address>
1c011c5e:	355d                	jal	1c011b04 <walk_stackframe>
	EXCEPTION_DUMP("");
1c011c60:	1c015537          	lui	a0,0x1c015
1c011c64:	04500593          	li	a1,69
1c011c68:	ac450513          	addi	a0,a0,-1340 # 1c014ac4 <__clz_tab+0x190>
1c011c6c:	36bd                	jal	1c0117da <z_log_minimal_printk>
}
1c011c6e:	50b2                	lw	ra,44(sp)
1c011c70:	6145                	addi	sp,sp,48
1c011c72:	8082                	ret

1c011c74 <z_impl_zephyr_fputc>:

static LIBC_DATA int (*_stdout_hook)(int);

int z_impl_zephyr_fputc(int a, FILE *out)
{
	(*_stdout_hook)(a);
1c011c74:	1c0167b7          	lui	a5,0x1c016
1c011c78:	1a87a783          	lw	a5,424(a5) # 1c0161a8 <_stdout_hook>
{
1c011c7c:	1141                	addi	sp,sp,-16
1c011c7e:	c606                	sw	ra,12(sp)
	(*_stdout_hook)(a);
1c011c80:	9782                	jalr	a5
	return 0;
}
1c011c82:	40b2                	lw	ra,12(sp)
1c011c84:	4501                	li	a0,0
1c011c86:	0141                	addi	sp,sp,16
1c011c88:	8082                	ret

1c011c8a <picolibc_put>:
}
#include <zephyr/syscalls/zephyr_fputc_mrsh.c>
#endif

static int picolibc_put(char a, FILE *f)
{
1c011c8a:	1141                	addi	sp,sp,-16
1c011c8c:	c606                	sw	ra,12(sp)
		union { uintptr_t x; FILE * val; } parm1 = { .val = stream };
		return (int) arch_syscall_invoke2(parm0.x, parm1.x, K_SYSCALL_ZEPHYR_FPUTC);
	}
#endif
	compiler_barrier();
	return z_impl_zephyr_fputc(c, stream);
1c011c8e:	37dd                	jal	1c011c74 <z_impl_zephyr_fputc>
	zephyr_fputc(a, f);
	return 0;
}
1c011c90:	40b2                	lw	ra,12(sp)
1c011c92:	4501                	li	a0,0
1c011c94:	0141                	addi	sp,sp,16
1c011c96:	8082                	ret

1c011c98 <__stdout_hook_install>:
FILE *const stdout = &__stdout;
STDIO_ALIAS(stderr);

void __stdout_hook_install(int (*hook)(int))
{
	_stdout_hook = hook;
1c011c98:	1c0167b7          	lui	a5,0x1c016
1c011c9c:	1aa7a423          	sw	a0,424(a5) # 1c0161a8 <_stdout_hook>
	__stdout.flags |= _FDEV_SETUP_WRITE;
1c011ca0:	1c0157b7          	lui	a5,0x1c015
1c011ca4:	72c78793          	addi	a5,a5,1836 # 1c01572c <__stdout>
1c011ca8:	0047c703          	lbu	a4,4(a5)
1c011cac:	00276713          	ori	a4,a4,2
1c011cb0:	00e78223          	sb	a4,4(a5)
}
1c011cb4:	8082                	ret

1c011cb6 <malloc_prepare>:
			break;
		}
		heap_size >>= 1;
	}
#else
	heap_base = UINT_TO_POINTER(HEAP_BASE);
1c011cb6:	1c0175b7          	lui	a1,0x1c017
1c011cba:	2f758593          	addi	a1,a1,759 # 1c0172f7 <__kernel_ram_end+0x7>
1c011cbe:	99e1                	andi	a1,a1,-8
	z_malloc_partition.start = POINTER_TO_UINT(heap_base);
	z_malloc_partition.size = heap_size;
	z_malloc_partition.attr = K_MEM_PARTITION_P_RW_U_RW;
#endif

	sys_heap_init(&z_malloc_heap, heap_base, heap_size);
1c011cc0:	1c050637          	lui	a2,0x1c050
1c011cc4:	1c016537          	lui	a0,0x1c016
{
1c011cc8:	1141                	addi	sp,sp,-16
	sys_heap_init(&z_malloc_heap, heap_base, heap_size);
1c011cca:	49850513          	addi	a0,a0,1176 # 1c016498 <z_malloc_heap>
1c011cce:	8e0d                	sub	a2,a2,a1
{
1c011cd0:	c606                	sw	ra,12(sp)
	sys_heap_init(&z_malloc_heap, heap_base, heap_size);
1c011cd2:	8b7ff0ef          	jal	ra,1c011588 <sys_heap_init>

	return 0;
}
1c011cd6:	40b2                	lw	ra,12(sp)
1c011cd8:	4501                	li	a0,0
1c011cda:	0141                	addi	sp,sp,16
1c011cdc:	8082                	ret

1c011cde <uart_console_init>:
 * @brief Initialize one UART as the console/debug port
 *
 * @return 0 if successful, otherwise failed.
 */
static int uart_console_init(void)
{
1c011cde:	1141                	addi	sp,sp,-16
1c011ce0:	c606                	sw	ra,12(sp)
1c011ce2:	c422                	sw	s0,8(sp)
1c011ce4:	1c014537          	lui	a0,0x1c014
1c011ce8:	60850513          	addi	a0,a0,1544 # 1c014608 <__device_dts_ord_25>
1c011cec:	6a4010ef          	jal	ra,1c013390 <z_impl_device_is_ready>
1c011cf0:	57b5                	li	a5,-19
	if (!device_is_ready(uart_console_dev)) {
1c011cf2:	c919                	beqz	a0,1c011d08 <uart_console_init+0x2a>
	__stdout_hook_install(console_out);
1c011cf4:	1c012437          	lui	s0,0x1c012
1c011cf8:	d1240513          	addi	a0,s0,-750 # 1c011d12 <console_out>
1c011cfc:	3f71                	jal	1c011c98 <__stdout_hook_install>
	__printk_hook_install(console_out);
1c011cfe:	d1240513          	addi	a0,s0,-750
1c011d02:	939ff0ef          	jal	ra,1c01163a <__printk_hook_install>
		return -ENODEV;
	}

	uart_console_hook_install();

	return 0;
1c011d06:	4781                	li	a5,0
}
1c011d08:	40b2                	lw	ra,12(sp)
1c011d0a:	4422                	lw	s0,8(sp)
1c011d0c:	853e                	mv	a0,a5
1c011d0e:	0141                	addi	sp,sp,16
1c011d10:	8082                	ret

1c011d12 <console_out>:
{
1c011d12:	1141                	addi	sp,sp,-16
1c011d14:	c422                	sw	s0,8(sp)
1c011d16:	c226                	sw	s1,4(sp)
1c011d18:	c04a                	sw	s2,0(sp)
1c011d1a:	1c0144b7          	lui	s1,0x1c014
1c011d1e:	c606                	sw	ra,12(sp)
	if ('\n' == c) {
1c011d20:	47a9                	li	a5,10
{
1c011d22:	842a                	mv	s0,a0
1c011d24:	60848913          	addi	s2,s1,1544 # 1c014608 <__device_dts_ord_25>
	if ('\n' == c) {
1c011d28:	00f51963          	bne	a0,a5,1c011d3a <console_out+0x28>

static inline void z_impl_uart_poll_out(const struct device *dev, unsigned char out_char)
{
	const struct uart_driver_api *api = (const struct uart_driver_api *)dev->api;

	api->poll_out(dev, out_char);
1c011d2c:	00892783          	lw	a5,8(s2)
1c011d30:	45b5                	li	a1,13
1c011d32:	60848513          	addi	a0,s1,1544
1c011d36:	4fdc                	lw	a5,28(a5)
1c011d38:	9782                	jalr	a5
1c011d3a:	00892783          	lw	a5,8(s2)
1c011d3e:	60848513          	addi	a0,s1,1544
1c011d42:	0ff47593          	zext.b	a1,s0
1c011d46:	4fdc                	lw	a5,28(a5)
1c011d48:	9782                	jalr	a5
}
1c011d4a:	40b2                	lw	ra,12(sp)
1c011d4c:	8522                	mv	a0,s0
1c011d4e:	4422                	lw	s0,8(sp)
1c011d50:	4492                	lw	s1,4(sp)
1c011d52:	4902                	lw	s2,0(sp)
1c011d54:	0141                	addi	sp,sp,16
1c011d56:	8082                	ret

1c011d58 <jesd216_bfp_erase>:
		       struct jesd216_erase_type *etp)
{
	__ASSERT_NO_MSG((idx > 0) && (idx <= JESD216_NUM_ERASE_TYPES));

	/* Types 1 and 2 are in dw8, types 3 and 4 in dw9 */
	const uint32_t *dwp = &bfp->dw8 + (idx - 1U) / 2U;
1c011d58:	fff58793          	addi	a5,a1,-1
1c011d5c:	8385                	srli	a5,a5,0x1
	uint32_t dw = sys_le32_to_cpu(*dwp);
1c011d5e:	078a                	slli	a5,a5,0x2
1c011d60:	953e                	add	a0,a0,a5

	/* Type 2(4) is in the upper half of the value. */
	if ((idx & 0x01) == 0x00) {
1c011d62:	8985                	andi	a1,a1,1
	uint32_t dw = sys_le32_to_cpu(*dwp);
1c011d64:	4d5c                	lw	a5,28(a0)
	if ((idx & 0x01) == 0x00) {
1c011d66:	e191                	bnez	a1,1c011d6a <jesd216_bfp_erase+0x12>
		dw >>= 16;
1c011d68:	83c1                	srli	a5,a5,0x10
	}

	/* Extract the exponent and command */
	uint8_t exp = (uint8_t)dw;
1c011d6a:	0ff7f713          	zext.b	a4,a5
	uint8_t cmd = (uint8_t)(dw >> 8);
1c011d6e:	83a1                	srli	a5,a5,0x8
1c011d70:	0ff7f793          	zext.b	a5,a5

	if (exp == 0) {
		return -EINVAL;
1c011d74:	5529                	li	a0,-22
	if (exp == 0) {
1c011d76:	c711                	beqz	a4,1c011d82 <jesd216_bfp_erase+0x2a>
	}
	etp->cmd = cmd;
1c011d78:	00f60023          	sb	a5,0(a2) # 1c050000 <__kernel_ram_end+0x38d10>
	etp->exp = exp;
1c011d7c:	00e600a3          	sb	a4,1(a2)
	return 0;
1c011d80:	4501                	li	a0,0
}
1c011d82:	8082                	ret

1c011d84 <jesd216_bfp_decode_dw16>:
int jesd216_bfp_decode_dw16(const struct jesd216_param_header *php,
			    const struct jesd216_bfp *bfp,
			    struct jesd216_bfp_dw16 *res)
{
	/* DW16 introduced in JESD216A */
	if (php->len_dw < 16) {
1c011d84:	00354703          	lbu	a4,3(a0)
1c011d88:	47bd                	li	a5,15
1c011d8a:	04e7f663          	bgeu	a5,a4,1c011dd6 <jesd216_bfp_decode_dw16+0x52>
		return -ENOTSUP;
	}

	uint32_t dw16 = sys_le32_to_cpu(bfp->dw10[6]);
1c011d8e:	5dd8                	lw	a4,60(a1)

	res->enter_4ba = (dw16 >> 24) & 0xFF;
	res->exit_4ba = (dw16 >> 14) & 0x3FF;
1c011d90:	00fc06b7          	lui	a3,0xfc0
1c011d94:	000405b7          	lui	a1,0x40
	res->enter_4ba = (dw16 >> 24) & 0xFF;
1c011d98:	01875793          	srli	a5,a4,0x18
1c011d9c:	00f60023          	sb	a5,0(a2)
	res->exit_4ba = (dw16 >> 14) & 0x3FF;
1c011da0:	00a71793          	slli	a5,a4,0xa
1c011da4:	8ff5                	and	a5,a5,a3
1c011da6:	f0058593          	addi	a1,a1,-256 # 3ff00 <CONFIG_FLASH_LOAD_OFFSET+0x1ff00>
1c011daa:	00675693          	srli	a3,a4,0x6
1c011dae:	8eed                	and	a3,a3,a1
1c011db0:	8fd5                	or	a5,a5,a3
1c011db2:	0762                	slli	a4,a4,0x18
1c011db4:	7f0006b7          	lui	a3,0x7f000
1c011db8:	8f75                	and	a4,a4,a3
1c011dba:	8fd9                	or	a5,a5,a4
1c011dbc:	80000737          	lui	a4,0x80000
1c011dc0:	f0070693          	addi	a3,a4,-256 # 7fffff00 <CONFIG_COMMON_LIBC_MALLOC_ARENA_SIZE+0x7fffff01>
1c011dc4:	8ff5                	and	a5,a5,a3
1c011dc6:	4214                	lw	a3,0(a2)
1c011dc8:	0ff70713          	addi	a4,a4,255
	res->srrs_support = (dw16 >> 8) & 0x3F;
	res->sr1_interface = (dw16 >> 0) & 0x7F;

	return 0;
1c011dcc:	4501                	li	a0,0
	res->exit_4ba = (dw16 >> 14) & 0x3FF;
1c011dce:	8f75                	and	a4,a4,a3
1c011dd0:	8fd9                	or	a5,a5,a4
1c011dd2:	c21c                	sw	a5,0(a2)
	return 0;
1c011dd4:	8082                	ret
		return -ENOTSUP;
1c011dd6:	f7a00513          	li	a0,-134
}
1c011dda:	8082                	ret

1c011ddc <spi_nor_pages_layout>:
{
	/* Data for runtime, const for devicetree and minimal. */
#ifdef CONFIG_SPI_NOR_SFDP_RUNTIME
	const struct spi_nor_data *data = dev->data;

	*layout = &data->layout;
1c011ddc:	491c                	lw	a5,16(a0)
1c011dde:	02078793          	addi	a5,a5,32
1c011de2:	c19c                	sw	a5,0(a1)
	const struct spi_nor_config *cfg = dev->config;

	*layout = &cfg->layout;
#endif /* CONFIG_SPI_NOR_SFDP_RUNTIME */

	*layout_size = 1;
1c011de4:	4785                	li	a5,1
1c011de6:	c21c                	sw	a5,0(a2)
}
1c011de8:	8082                	ret

1c011dea <flash_nor_get_parameters>:
static const struct flash_parameters *
flash_nor_get_parameters(const struct device *dev)
{
	ARG_UNUSED(dev);

	return &flash_nor_parameters;
1c011dea:	1c015537          	lui	a0,0x1c015
}
1c011dee:	91850513          	addi	a0,a0,-1768 # 1c014918 <flash_nor_parameters>
1c011df2:	8082                	ret

1c011df4 <flash_nor_get_size>:
	return data->flash_size;
1c011df4:	491c                	lw	a5,16(a0)
static int flash_nor_get_size(const struct device *dev, uint64_t *size)
{
	*size = (uint64_t)dev_flash_size(dev);

	return 0;
}
1c011df6:	4501                	li	a0,0
	*size = (uint64_t)dev_flash_size(dev);
1c011df8:	4fdc                	lw	a5,28(a5)
1c011dfa:	0005a223          	sw	zero,4(a1)
1c011dfe:	c19c                	sw	a5,0(a1)
}
1c011e00:	8082                	ret

1c011e02 <release_device.isra.0>:
		(void) arch_syscall_invoke1(parm0.x, K_SYSCALL_K_SEM_GIVE);
		return;
	}
#endif
	compiler_barrier();
	z_impl_k_sem_give(sem);
1c011e02:	0d10106f          	j	1c0136d2 <z_impl_k_sem_give>

1c011e06 <acquire_device.isra.0>:
	return z_impl_k_sem_take(sem, timeout);
1c011e06:	55fd                	li	a1,-1
1c011e08:	567d                	li	a2,-1
1c011e0a:	1390106f          	j	1c013742 <z_impl_k_sem_take>

1c011e0e <spi_nor_access>:
{
1c011e0e:	715d                	addi	sp,sp,-80
1c011e10:	c4a2                	sw	s0,72(sp)
1c011e12:	843e                	mv	s0,a5
	struct spi_buf spi_buf_tx[2] = {
1c011e14:	003c                	addi	a5,sp,8
1c011e16:	d03e                	sw	a5,32(sp)
1c011e18:	4785                	li	a5,1
{
1c011e1a:	c2a6                	sw	s1,68(sp)
1c011e1c:	c686                	sw	ra,76(sp)
1c011e1e:	c0ca                	sw	s2,64(sp)
	struct spi_buf spi_buf_tx[2] = {
1c011e20:	d23e                	sw	a5,36(sp)
	struct spi_buf spi_buf_rx[2] = {
1c011e22:	da3e                	sw	a5,52(sp)
	uint8_t buf[6] = {opcode};
1c011e24:	000104a3          	sb	zero,9(sp)
1c011e28:	00010523          	sb	zero,10(sp)
1c011e2c:	000105a3          	sb	zero,11(sp)
1c011e30:	00010623          	sb	zero,12(sp)
1c011e34:	000106a3          	sb	zero,13(sp)
1c011e38:	00b10423          	sb	a1,8(sp)
	struct spi_buf spi_buf_tx[2] = {
1c011e3c:	d43a                	sw	a4,40(sp)
1c011e3e:	d622                	sw	s0,44(sp)
	struct spi_buf spi_buf_rx[2] = {
1c011e40:	d802                	sw	zero,48(sp)
1c011e42:	dc3a                	sw	a4,56(sp)
1c011e44:	de22                	sw	s0,60(sp)
	bool is_addressed = (access & NOR_ACCESS_ADDRESSED) != 0U;
1c011e46:	00167793          	andi	a5,a2,1
	const struct spi_nor_config *const driver_cfg = dev->config;
1c011e4a:	00452903          	lw	s2,4(a0)
	bool is_write = (access & NOR_ACCESS_WRITE) != 0U;
1c011e4e:	08067493          	andi	s1,a2,128
	struct spi_nor_data *const driver_data = dev->data;
1c011e52:	4908                	lw	a0,16(a0)
	if (is_addressed) {
1c011e54:	c3b9                	beqz	a5,1c011e9a <spi_nor_access+0x8c>
		bool access_32bit = (access & NOR_ACCESS_32BIT_ADDR) != 0;
1c011e56:	8a11                	andi	a2,a2,4
				  || (!access_24bit
1c011e58:	4705                	li	a4,1
1c011e5a:	e601                	bnez	a2,1c011e62 <spi_nor_access+0x54>
				      && driver_data->flag_access_32bit));
1c011e5c:	01054703          	lbu	a4,16(a0)
1c011e60:	8b05                	andi	a4,a4,1
			.u32 = sys_cpu_to_be32(addr),
1c011e62:	6641                	lui	a2,0x10
1c011e64:	4086d793          	srai	a5,a3,0x8
1c011e68:	f0060613          	addi	a2,a2,-256 # ff00 <CONFIG_SYS_CLOCK_TICKS_PER_SEC+0x84ee>
1c011e6c:	8ff1                	and	a5,a5,a2
1c011e6e:	00ff05b7          	lui	a1,0xff0
1c011e72:	00869613          	slli	a2,a3,0x8
1c011e76:	8e6d                	and	a2,a2,a1
1c011e78:	8fd1                	or	a5,a5,a2
1c011e7a:	01869613          	slli	a2,a3,0x18
1c011e7e:	8fd1                	or	a5,a5,a2
1c011e80:	82e1                	srli	a3,a3,0x18
1c011e82:	8edd                	or	a3,a3,a5
		} addr32 = {
1c011e84:	cc36                	sw	a3,24(sp)
		if (use_32bit) {
1c011e86:	c721                	beqz	a4,1c011ece <spi_nor_access+0xc0>
			memcpy(&buf[1], &addr32.u8[0], 4);
1c011e88:	4611                	li	a2,4
1c011e8a:	082c                	addi	a1,sp,24
1c011e8c:	00910513          	addi	a0,sp,9
1c011e90:	678020ef          	jal	ra,1c014508 <memcpy>
			spi_buf_rx[0].len += 4;
1c011e94:	4795                	li	a5,5
			spi_buf_tx[0].len += 4;
1c011e96:	d23e                	sw	a5,36(sp)
			spi_buf_rx[0].len += 4;
1c011e98:	da3e                	sw	a5,52(sp)
	const struct spi_buf_set tx_set = {
1c011e9a:	101c                	addi	a5,sp,32
1c011e9c:	c83e                	sw	a5,16(sp)
 * @return a value from spi_write().
 */
static inline int spi_write_dt(const struct spi_dt_spec *spec,
			       const struct spi_buf_set *tx_bufs)
{
	return spi_write(spec->bus, &spec->config, tx_bufs);
1c011e9e:	00490593          	addi	a1,s2,4
		.count = (is_write && length != 0) ? 2 : 1,
1c011ea2:	cc9d                	beqz	s1,1c011ee0 <spi_nor_access+0xd2>
	const struct spi_buf_set rx_set = {
1c011ea4:	181c                	addi	a5,sp,48
		.count = (is_write && length != 0) ? 2 : 1,
1c011ea6:	00803433          	snez	s0,s0
	const struct spi_buf_set rx_set = {
1c011eaa:	cc3e                	sw	a5,24(sp)
		.count = (is_write && length != 0) ? 2 : 1,
1c011eac:	0405                	addi	s0,s0,1
	const struct spi_buf_set rx_set = {
1c011eae:	4789                	li	a5,2
	const struct spi_buf_set tx_set = {
1c011eb0:	ca22                	sw	s0,20(sp)
	const struct spi_buf_set rx_set = {
1c011eb2:	ce3e                	sw	a5,28(sp)
1c011eb4:	00092503          	lw	a0,0(s2)
	ret = api->transceive(dev, config, tx_bufs, rx_bufs);
1c011eb8:	451c                	lw	a5,8(a0)
1c011eba:	4681                	li	a3,0
1c011ebc:	439c                	lw	a5,0(a5)
1c011ebe:	0810                	addi	a2,sp,16
1c011ec0:	9782                	jalr	a5
}
1c011ec2:	40b6                	lw	ra,76(sp)
1c011ec4:	4426                	lw	s0,72(sp)
1c011ec6:	4496                	lw	s1,68(sp)
1c011ec8:	4906                	lw	s2,64(sp)
1c011eca:	6161                	addi	sp,sp,80
1c011ecc:	8082                	ret
			memcpy(&buf[1], &addr32.u8[1], 3);
1c011ece:	460d                	li	a2,3
1c011ed0:	01910593          	addi	a1,sp,25
1c011ed4:	00910513          	addi	a0,sp,9
1c011ed8:	630020ef          	jal	ra,1c014508 <memcpy>
1c011edc:	4791                	li	a5,4
1c011ede:	bf65                	j	1c011e96 <spi_nor_access+0x88>
	const struct spi_buf_set tx_set = {
1c011ee0:	4785                	li	a5,1
1c011ee2:	ca3e                	sw	a5,20(sp)
	const struct spi_buf_set rx_set = {
1c011ee4:	181c                	addi	a5,sp,48
1c011ee6:	cc3e                	sw	a5,24(sp)
1c011ee8:	4789                	li	a5,2
1c011eea:	ce3e                	sw	a5,28(sp)
	return spi_transceive(spec->bus, &spec->config, tx_bufs, rx_bufs);
1c011eec:	00092503          	lw	a0,0(s2)
	ret = api->transceive(dev, config, tx_bufs, rx_bufs);
1c011ef0:	451c                	lw	a5,8(a0)
1c011ef2:	0834                	addi	a3,sp,24
1c011ef4:	439c                	lw	a5,0(a5)
1c011ef6:	b7e1                	j	1c011ebe <spi_nor_access+0xb0>

1c011ef8 <spi_nor_rdsr>:
{
1c011ef8:	1101                	addi	sp,sp,-32
	int ret = spi_nor_cmd_read(dev, SPI_NOR_CMD_RDSR, &reg, sizeof(reg));
1c011efa:	4785                	li	a5,1
1c011efc:	00f10713          	addi	a4,sp,15
1c011f00:	4681                	li	a3,0
1c011f02:	4601                	li	a2,0
1c011f04:	4595                	li	a1,5
{
1c011f06:	ce06                	sw	ra,28(sp)
	int ret = spi_nor_cmd_read(dev, SPI_NOR_CMD_RDSR, &reg, sizeof(reg));
1c011f08:	3719                	jal	1c011e0e <spi_nor_access>
	if (ret == 0) {
1c011f0a:	e119                	bnez	a0,1c011f10 <spi_nor_rdsr+0x18>
		ret = reg;
1c011f0c:	00f14503          	lbu	a0,15(sp)
}
1c011f10:	40f2                	lw	ra,28(sp)
1c011f12:	6105                	addi	sp,sp,32
1c011f14:	8082                	ret

1c011f16 <spi_nor_wait_until_ready>:
{
1c011f16:	1101                	addi	sp,sp,-32
1c011f18:	cc22                	sw	s0,24(sp)
1c011f1a:	ca26                	sw	s1,20(sp)
1c011f1c:	c84a                	sw	s2,16(sp)
1c011f1e:	ce06                	sw	ra,28(sp)
1c011f20:	892a                	mv	s2,a0
1c011f22:	84ae                	mv	s1,a1
1c011f24:	8432                	mv	s0,a2
			ret = spi_nor_cmd_read(dev, SPI_NOR_CMD_RDSR, &reg, sizeof(reg));
1c011f26:	4785                	li	a5,1
1c011f28:	00f10713          	addi	a4,sp,15
1c011f2c:	4681                	li	a3,0
1c011f2e:	4601                	li	a2,0
1c011f30:	4595                	li	a1,5
1c011f32:	854a                	mv	a0,s2
1c011f34:	3de9                	jal	1c011e0e <spi_nor_access>
			if (ret || !(reg & SPI_NOR_WIP_BIT)) {
1c011f36:	e911                	bnez	a0,1c011f4a <spi_nor_wait_until_ready+0x34>
1c011f38:	00f14783          	lbu	a5,15(sp)
1c011f3c:	8b85                	andi	a5,a5,1
1c011f3e:	c791                	beqz	a5,1c011f4a <spi_nor_wait_until_ready+0x34>
	return z_impl_k_sleep(timeout);
1c011f40:	8526                	mv	a0,s1
1c011f42:	85a2                	mv	a1,s0
1c011f44:	72f010ef          	jal	ra,1c013e72 <z_impl_k_sleep>
		if (IS_ENABLED(ANY_INST_HAS_FLSR) && cfg->has_flsr) {
1c011f48:	bff9                	j	1c011f26 <spi_nor_wait_until_ready+0x10>
}
1c011f4a:	40f2                	lw	ra,28(sp)
1c011f4c:	4462                	lw	s0,24(sp)
1c011f4e:	44d2                	lw	s1,20(sp)
1c011f50:	4942                	lw	s2,16(sp)
1c011f52:	6105                	addi	sp,sp,32
1c011f54:	8082                	ret

1c011f56 <spi_nor_erase>:
{
1c011f56:	7179                	addi	sp,sp,-48
1c011f58:	d422                	sw	s0,40(sp)
1c011f5a:	ce4e                	sw	s3,28(sp)
1c011f5c:	d606                	sw	ra,44(sp)
1c011f5e:	d226                	sw	s1,36(sp)
1c011f60:	d04a                	sw	s2,32(sp)
1c011f62:	cc52                	sw	s4,24(sp)
1c011f64:	ca56                	sw	s5,20(sp)
1c011f66:	c85a                	sw	s6,16(sp)
1c011f68:	c65e                	sw	s7,12(sp)
1c011f6a:	89aa                	mv	s3,a0
	const struct spi_nor_data *data = dev->data;
1c011f6c:	4908                	lw	a0,16(a0)
		return -EINVAL;
1c011f6e:	5429                	li	s0,-22
	return data->flash_size;
1c011f70:	01c52a83          	lw	s5,28(a0)
	if ((addr < 0) || ((size + addr) > flash_size)) {
1c011f74:	0e05c363          	bltz	a1,1c01205a <spi_nor_erase+0x104>
1c011f78:	00c587b3          	add	a5,a1,a2
1c011f7c:	892e                	mv	s2,a1
1c011f7e:	84b2                	mv	s1,a2
		return -EINVAL;
1c011f80:	5429                	li	s0,-22
	if ((addr < 0) || ((size + addr) > flash_size)) {
1c011f82:	0cfaec63          	bltu	s5,a5,1c01205a <spi_nor_erase+0x104>
	if ((size % SPI_NOR_SECTOR_SIZE) != 0) {
1c011f86:	00c5e7b3          	or	a5,a1,a2
1c011f8a:	01479713          	slli	a4,a5,0x14
1c011f8e:	e771                	bnez	a4,1c01205a <spi_nor_erase+0x104>
	acquire_device(dev);
1c011f90:	3d9d                	jal	1c011e06 <acquire_device.isra.0>
	ret = spi_nor_write_protection_set(dev, false);
1c011f92:	4401                	li	s0,0
				    && SPI_NOR_IS_ALIGNED(addr, etp->exp)
1c011f94:	5bfd                	li	s7,-1
				addr += BIT(bet->exp);
1c011f96:	4b05                	li	s6,1
	while ((size > 0) && (ret == 0)) {
1c011f98:	ccd5                	beqz	s1,1c012054 <spi_nor_erase+0xfe>
1c011f9a:	ec4d                	bnez	s0,1c012054 <spi_nor_erase+0xfe>
		ret = spi_nor_cmd_write(dev, SPI_NOR_CMD_WREN);
1c011f9c:	4781                	li	a5,0
1c011f9e:	4701                	li	a4,0
1c011fa0:	4681                	li	a3,0
1c011fa2:	08000613          	li	a2,128
1c011fa6:	4599                	li	a1,6
1c011fa8:	854e                	mv	a0,s3
1c011faa:	3595                	jal	1c011e0e <spi_nor_access>
1c011fac:	842a                	mv	s0,a0
		if (ret) {
1c011fae:	e15d                	bnez	a0,1c012054 <spi_nor_erase+0xfe>
		if (size == flash_size) {
1c011fb0:	029a9563          	bne	s5,s1,1c011fda <spi_nor_erase+0x84>
			ret = spi_nor_cmd_write(dev, SPI_NOR_CMD_CE);
1c011fb4:	4781                	li	a5,0
1c011fb6:	4701                	li	a4,0
1c011fb8:	4681                	li	a3,0
1c011fba:	08000613          	li	a2,128
1c011fbe:	0c700593          	li	a1,199
1c011fc2:	854e                	mv	a0,s3
1c011fc4:	35a9                	jal	1c011e0e <spi_nor_access>
1c011fc6:	842a                	mv	s0,a0
			size -= flash_size;
1c011fc8:	4481                	li	s1,0
		if (ret != 0) {
1c011fca:	e449                	bnez	s0,1c012054 <spi_nor_erase+0xfe>
		ret = spi_nor_wait_until_ready(dev, WAIT_READY_ERASE);
1c011fcc:	61b00593          	li	a1,1563
1c011fd0:	4601                	li	a2,0
1c011fd2:	854e                	mv	a0,s3
1c011fd4:	3789                	jal	1c011f16 <spi_nor_wait_until_ready>
1c011fd6:	842a                	mv	s0,a0
1c011fd8:	b7c1                	j	1c011f98 <spi_nor_erase+0x42>
	const struct spi_nor_data *data = dev->data;
1c011fda:	0109a703          	lw	a4,16(s3)
			const struct jesd216_erase_type *bet = NULL;
1c011fde:	4a01                	li	s4,0
1c011fe0:	01170793          	addi	a5,a4,17
1c011fe4:	01970693          	addi	a3,a4,25
				if ((etp->exp != 0)
1c011fe8:	0017c603          	lbu	a2,1(a5)
1c011fec:	c21d                	beqz	a2,1c012012 <spi_nor_erase+0xbc>
				    && SPI_NOR_IS_ALIGNED(addr, etp->exp)
1c011fee:	00cb9733          	sll	a4,s7,a2
1c011ff2:	fff74713          	not	a4,a4
1c011ff6:	01277733          	and	a4,a4,s2
1c011ffa:	ef01                	bnez	a4,1c012012 <spi_nor_erase+0xbc>
				    && (size >= BIT(etp->exp))
1c011ffc:	00cb1733          	sll	a4,s6,a2
1c012000:	00e4e963          	bltu	s1,a4,1c012012 <spi_nor_erase+0xbc>
				    && ((bet == NULL)
1c012004:	000a0663          	beqz	s4,1c012010 <spi_nor_erase+0xba>
					|| (etp->exp > bet->exp))) {
1c012008:	001a4703          	lbu	a4,1(s4)
1c01200c:	00c77363          	bgeu	a4,a2,1c012012 <spi_nor_erase+0xbc>
1c012010:	8a3e                	mv	s4,a5
			for (uint8_t ei = 0; ei < JESD216_NUM_ERASE_TYPES; ++ei) {
1c012012:	0789                	addi	a5,a5,2
1c012014:	fcf69ae3          	bne	a3,a5,1c011fe8 <spi_nor_erase+0x92>
			if (bet != NULL) {
1c012018:	020a0363          	beqz	s4,1c01203e <spi_nor_erase+0xe8>
					ret = spi_nor_cmd_addr_write(dev, bet->cmd, addr, NULL, 0);
1c01201c:	000a4583          	lbu	a1,0(s4)
1c012020:	4781                	li	a5,0
1c012022:	86ca                	mv	a3,s2
1c012024:	4701                	li	a4,0
1c012026:	08100613          	li	a2,129
1c01202a:	854e                	mv	a0,s3
1c01202c:	33cd                	jal	1c011e0e <spi_nor_access>
				addr += BIT(bet->exp);
1c01202e:	001a4783          	lbu	a5,1(s4)
					ret = spi_nor_cmd_addr_write(dev, bet->cmd, addr, NULL, 0);
1c012032:	842a                	mv	s0,a0
				addr += BIT(bet->exp);
1c012034:	00fb17b3          	sll	a5,s6,a5
1c012038:	993e                	add	s2,s2,a5
				size -= BIT(bet->exp);
1c01203a:	8c9d                	sub	s1,s1,a5
1c01203c:	b779                	j	1c011fca <spi_nor_erase+0x74>
				LOG_DBG("Can't erase %zu at 0x%lx",
1c01203e:	1c015537          	lui	a0,0x1c015
1c012042:	86ca                	mv	a3,s2
1c012044:	8626                	mv	a2,s1
1c012046:	04400593          	li	a1,68
1c01204a:	f4850513          	addi	a0,a0,-184 # 1c014f48 <mcause_str.0+0xb0>
1c01204e:	f8cff0ef          	jal	ra,1c0117da <z_log_minimal_printk>
				ret = -EINVAL;
1c012052:	5429                	li	s0,-22
	release_device(dev);
1c012054:	0109a503          	lw	a0,16(s3)
1c012058:	336d                	jal	1c011e02 <release_device.isra.0>
}
1c01205a:	50b2                	lw	ra,44(sp)
1c01205c:	8522                	mv	a0,s0
1c01205e:	5422                	lw	s0,40(sp)
1c012060:	5492                	lw	s1,36(sp)
1c012062:	5902                	lw	s2,32(sp)
1c012064:	49f2                	lw	s3,28(sp)
1c012066:	4a62                	lw	s4,24(sp)
1c012068:	4ad2                	lw	s5,20(sp)
1c01206a:	4b42                	lw	s6,16(sp)
1c01206c:	4bb2                	lw	s7,12(sp)
1c01206e:	6145                	addi	sp,sp,48
1c012070:	8082                	ret

1c012072 <spi_nor_write>:
{
1c012072:	1101                	addi	sp,sp,-32
1c012074:	cc22                	sw	s0,24(sp)
1c012076:	c452                	sw	s4,8(sp)
1c012078:	ce06                	sw	ra,28(sp)
1c01207a:	ca26                	sw	s1,20(sp)
1c01207c:	c84a                	sw	s2,16(sp)
1c01207e:	c64e                	sw	s3,12(sp)
1c012080:	c256                	sw	s5,4(sp)
1c012082:	c05a                	sw	s6,0(sp)
1c012084:	8a2a                	mv	s4,a0
	const struct spi_nor_data *data = dev->data;
1c012086:	4908                	lw	a0,16(a0)
		return -EINVAL;
1c012088:	5429                	li	s0,-22
	return data->flash_size;
1c01208a:	4d58                	lw	a4,28(a0)
	return data->page_size;
1c01208c:	01a55a83          	lhu	s5,26(a0)
	if ((addr < 0) || ((size + addr) > flash_size)) {
1c012090:	0805c163          	bltz	a1,1c012112 <spi_nor_write+0xa0>
1c012094:	00d587b3          	add	a5,a1,a3
1c012098:	84ae                	mv	s1,a1
1c01209a:	89b6                	mv	s3,a3
		return -EINVAL;
1c01209c:	5429                	li	s0,-22
	if ((addr < 0) || ((size + addr) > flash_size)) {
1c01209e:	06f76a63          	bltu	a4,a5,1c012112 <spi_nor_write+0xa0>
1c0120a2:	8b32                	mv	s6,a2
	acquire_device(dev);
1c0120a4:	338d                	jal	1c011e06 <acquire_device.isra.0>
		while (size > 0) {
1c0120a6:	00099463          	bnez	s3,1c0120ae <spi_nor_write+0x3c>
1c0120aa:	4401                	li	s0,0
1c0120ac:	a085                	j	1c01210c <spi_nor_write+0x9a>
			if (to_write >= page_size) {
1c0120ae:	8956                	mv	s2,s5
1c0120b0:	0159f363          	bgeu	s3,s5,1c0120b6 <spi_nor_write+0x44>
1c0120b4:	894e                	mv	s2,s3
			if (((addr + to_write - 1U) / page_size)
1c0120b6:	012487b3          	add	a5,s1,s2
1c0120ba:	17fd                	addi	a5,a5,-1
1c0120bc:	0357d7b3          	divu	a5,a5,s5
			!= (addr / page_size)) {
1c0120c0:	0354c733          	div	a4,s1,s5
			if (((addr + to_write - 1U) / page_size)
1c0120c4:	00e78663          	beq	a5,a4,1c0120d0 <spi_nor_write+0x5e>
				to_write = page_size - (addr % page_size);
1c0120c8:	0354e933          	rem	s2,s1,s5
1c0120cc:	412a8933          	sub	s2,s5,s2
			ret = spi_nor_cmd_write(dev, SPI_NOR_CMD_WREN);
1c0120d0:	4781                	li	a5,0
1c0120d2:	4701                	li	a4,0
1c0120d4:	4681                	li	a3,0
1c0120d6:	08000613          	li	a2,128
1c0120da:	4599                	li	a1,6
1c0120dc:	8552                	mv	a0,s4
1c0120de:	3b05                	jal	1c011e0e <spi_nor_access>
1c0120e0:	842a                	mv	s0,a0
			if (ret != 0) {
1c0120e2:	e50d                	bnez	a0,1c01210c <spi_nor_write+0x9a>
				ret = spi_nor_cmd_addr_write(dev, SPI_NOR_CMD_PP, addr, src,
1c0120e4:	87ca                	mv	a5,s2
1c0120e6:	875a                	mv	a4,s6
1c0120e8:	86a6                	mv	a3,s1
1c0120ea:	08100613          	li	a2,129
1c0120ee:	4589                	li	a1,2
1c0120f0:	8552                	mv	a0,s4
1c0120f2:	3b31                	jal	1c011e0e <spi_nor_access>
1c0120f4:	842a                	mv	s0,a0
			if (ret != 0) {
1c0120f6:	e919                	bnez	a0,1c01210c <spi_nor_write+0x9a>
			ret = spi_nor_wait_until_ready(dev, WAIT_READY_WRITE);
1c0120f8:	4585                	li	a1,1
1c0120fa:	4601                	li	a2,0
1c0120fc:	8552                	mv	a0,s4
1c0120fe:	3d21                	jal	1c011f16 <spi_nor_wait_until_ready>
			size -= to_write;
1c012100:	412989b3          	sub	s3,s3,s2
			src = (const uint8_t *)src + to_write;
1c012104:	9b4a                	add	s6,s6,s2
			addr += to_write;
1c012106:	94ca                	add	s1,s1,s2
			ret = spi_nor_wait_until_ready(dev, WAIT_READY_WRITE);
1c012108:	842a                	mv	s0,a0
			if (ret != 0) {
1c01210a:	dd51                	beqz	a0,1c0120a6 <spi_nor_write+0x34>
	release_device(dev);
1c01210c:	010a2503          	lw	a0,16(s4)
1c012110:	39cd                	jal	1c011e02 <release_device.isra.0>
}
1c012112:	40f2                	lw	ra,28(sp)
1c012114:	8522                	mv	a0,s0
1c012116:	4462                	lw	s0,24(sp)
1c012118:	44d2                	lw	s1,20(sp)
1c01211a:	4942                	lw	s2,16(sp)
1c01211c:	49b2                	lw	s3,12(sp)
1c01211e:	4a22                	lw	s4,8(sp)
1c012120:	4a92                	lw	s5,4(sp)
1c012122:	4b02                	lw	s6,0(sp)
1c012124:	6105                	addi	sp,sp,32
1c012126:	8082                	ret

1c012128 <spi_nor_read>:
{
1c012128:	1101                	addi	sp,sp,-32
1c01212a:	cc22                	sw	s0,24(sp)
1c01212c:	ca26                	sw	s1,20(sp)
1c01212e:	ce06                	sw	ra,28(sp)
1c012130:	c84a                	sw	s2,16(sp)
1c012132:	84aa                	mv	s1,a0
	const struct spi_nor_data *data = dev->data;
1c012134:	4908                	lw	a0,16(a0)
{
1c012136:	c632                	sw	a2,12(sp)
		return -EINVAL;
1c012138:	5429                	li	s0,-22
	return data->flash_size;
1c01213a:	4d50                	lw	a2,28(a0)
	if ((addr < 0) || ((addr + size) > flash_size)) {
1c01213c:	0205c463          	bltz	a1,1c012164 <spi_nor_read+0x3c>
1c012140:	87b6                	mv	a5,a3
1c012142:	c43e                	sw	a5,8(sp)
1c012144:	96ae                	add	a3,a3,a1
1c012146:	892e                	mv	s2,a1
		return -EINVAL;
1c012148:	5429                	li	s0,-22
	if ((addr < 0) || ((addr + size) > flash_size)) {
1c01214a:	00d66d63          	bltu	a2,a3,1c012164 <spi_nor_read+0x3c>
	acquire_device(dev);
1c01214e:	3965                	jal	1c011e06 <acquire_device.isra.0>
			ret = spi_nor_cmd_addr_read(dev, SPI_NOR_CMD_READ, addr, dest, size);
1c012150:	47a2                	lw	a5,8(sp)
1c012152:	4732                	lw	a4,12(sp)
1c012154:	86ca                	mv	a3,s2
1c012156:	4605                	li	a2,1
1c012158:	458d                	li	a1,3
1c01215a:	8526                	mv	a0,s1
1c01215c:	394d                	jal	1c011e0e <spi_nor_access>
1c01215e:	842a                	mv	s0,a0
	release_device(dev);
1c012160:	4888                	lw	a0,16(s1)
1c012162:	3145                	jal	1c011e02 <release_device.isra.0>
}
1c012164:	40f2                	lw	ra,28(sp)
1c012166:	8522                	mv	a0,s0
1c012168:	4462                	lw	s0,24(sp)
1c01216a:	44d2                	lw	s1,20(sp)
1c01216c:	4942                	lw	s2,16(sp)
1c01216e:	6105                	addi	sp,sp,32
1c012170:	8082                	ret

1c012172 <spi_nor_init>:
{
1c012172:	7155                	addi	sp,sp,-208
1c012174:	c5a2                	sw	s0,200(sp)
1c012176:	c786                	sw	ra,204(sp)
1c012178:	c3a6                	sw	s1,196(sp)
1c01217a:	c1ca                	sw	s2,192(sp)
1c01217c:	df4e                	sw	s3,188(sp)
1c01217e:	dd52                	sw	s4,184(sp)
1c012180:	db56                	sw	s5,180(sp)
1c012182:	d95a                	sw	s6,176(sp)
1c012184:	d75e                	sw	s7,172(sp)
1c012186:	d562                	sw	s8,168(sp)
1c012188:	d366                	sw	s9,164(sp)
1c01218a:	d16a                	sw	s10,160(sp)
1c01218c:	cf6e                	sw	s11,156(sp)
1c01218e:	0980                	addi	s0,sp,208
1c012190:	f2a42e23          	sw	a0,-196(s0)
		k_sem_init(&driver_data->sem, 1, K_SEM_MAX_LIMIT);
1c012194:	4908                	lw	a0,16(a0)
	return z_impl_k_sem_init(sem, initial_count, limit);
1c012196:	567d                	li	a2,-1
1c012198:	4585                	li	a1,1
1c01219a:	520010ef          	jal	ra,1c0136ba <z_impl_k_sem_init>
	const struct spi_nor_config *cfg = dev->config;
1c01219e:	f3c42783          	lw	a5,-196(s0)
1c0121a2:	0047a903          	lw	s2,4(a5)
	if (!device_is_ready(spec->bus)) {
1c0121a6:	00092503          	lw	a0,0(s2)
1c0121aa:	1e6010ef          	jal	ra,1c013390 <z_impl_device_is_ready>
1c0121ae:	c531                	beqz	a0,1c0121fa <spi_nor_init+0x88>
	if (spi_cs_is_gpio_dt(spec) &&
1c0121b0:	01894783          	lbu	a5,24(s2)
1c0121b4:	ef95                	bnez	a5,1c0121f0 <spi_nor_init+0x7e>
	acquire_device(dev);
1c0121b6:	f3c42783          	lw	a5,-196(s0)
1c0121ba:	4b88                	lw	a0,16(a5)
1c0121bc:	31a9                	jal	1c011e06 <acquire_device.isra.0>
	rc = spi_nor_rdsr(dev);
1c0121be:	f3c42503          	lw	a0,-196(s0)
1c0121c2:	3b1d                	jal	1c011ef8 <spi_nor_rdsr>
1c0121c4:	862a                	mv	a2,a0
	if (rc > 0 && (rc & SPI_NOR_WIP_BIT)) {
1c0121c6:	04a04b63          	bgtz	a0,1c01221c <spi_nor_init+0xaa>
	release_device(dev);
1c0121ca:	f3c42783          	lw	a5,-196(s0)
1c0121ce:	f2c42c23          	sw	a2,-200(s0)
1c0121d2:	4b88                	lw	a0,16(a5)
1c0121d4:	313d                	jal	1c011e02 <release_device.isra.0>
	if (rc < 0) {
1c0121d6:	f3842603          	lw	a2,-200(s0)
1c0121da:	04065863          	bgez	a2,1c01222a <spi_nor_init+0xb8>
		LOG_ERR("Failed to wait until flash is ready (%d)", rc);
1c0121de:	1c015537          	lui	a0,0x1c015
1c0121e2:	04500593          	li	a1,69
1c0121e6:	f8c50513          	addi	a0,a0,-116 # 1c014f8c <mcause_str.0+0xf4>
		LOG_ERR("JEDEC ID read failed: %d", rc);
1c0121ea:	df0ff0ef          	jal	ra,1c0117da <z_log_minimal_printk>
		if (rc == 0) {
1c0121ee:	a031                	j	1c0121fa <spi_nor_init+0x88>
1c0121f0:	00c92503          	lw	a0,12(s2)
1c0121f4:	19c010ef          	jal	ra,1c013390 <z_impl_device_is_ready>
1c0121f8:	fd5d                	bnez	a0,1c0121b6 <spi_nor_init+0x44>
1c0121fa:	54b5                	li	s1,-19
}
1c0121fc:	40be                	lw	ra,204(sp)
1c0121fe:	442e                	lw	s0,200(sp)
1c012200:	490e                	lw	s2,192(sp)
1c012202:	59fa                	lw	s3,188(sp)
1c012204:	5a6a                	lw	s4,184(sp)
1c012206:	5ada                	lw	s5,180(sp)
1c012208:	5b4a                	lw	s6,176(sp)
1c01220a:	5bba                	lw	s7,172(sp)
1c01220c:	5c2a                	lw	s8,168(sp)
1c01220e:	5c9a                	lw	s9,164(sp)
1c012210:	5d0a                	lw	s10,160(sp)
1c012212:	4dfa                	lw	s11,156(sp)
1c012214:	8526                	mv	a0,s1
1c012216:	449e                	lw	s1,196(sp)
1c012218:	6169                	addi	sp,sp,208
1c01221a:	8082                	ret
	if (rc > 0 && (rc & SPI_NOR_WIP_BIT)) {
1c01221c:	00157613          	andi	a2,a0,1
1c012220:	e239                	bnez	a2,1c012266 <spi_nor_init+0xf4>
	release_device(dev);
1c012222:	f3c42783          	lw	a5,-196(s0)
1c012226:	4b88                	lw	a0,16(a5)
1c012228:	3ee9                	jal	1c011e02 <release_device.isra.0>
	acquire_device(dev);
1c01222a:	f3c42783          	lw	a5,-196(s0)
1c01222e:	4b88                	lw	a0,16(a5)
1c012230:	3ed9                	jal	1c011e06 <acquire_device.isra.0>
	int ret = spi_nor_cmd_read(dev, SPI_NOR_CMD_RDID, id, SPI_NOR_MAX_ID_LEN);
1c012232:	f3c42503          	lw	a0,-196(s0)
1c012236:	4601                	li	a2,0
1c012238:	478d                	li	a5,3
1c01223a:	f5040713          	addi	a4,s0,-176
1c01223e:	4681                	li	a3,0
1c012240:	09f00593          	li	a1,159
1c012244:	36e9                	jal	1c011e0e <spi_nor_access>
	release_device(dev);
1c012246:	f3c42783          	lw	a5,-196(s0)
	int ret = spi_nor_cmd_read(dev, SPI_NOR_CMD_RDID, id, SPI_NOR_MAX_ID_LEN);
1c01224a:	f2a42c23          	sw	a0,-200(s0)
	release_device(dev);
1c01224e:	4b88                	lw	a0,16(a5)
1c012250:	3e4d                	jal	1c011e02 <release_device.isra.0>
	if (rc != 0) {
1c012252:	f3842603          	lw	a2,-200(s0)
1c012256:	c61d                	beqz	a2,1c012284 <spi_nor_init+0x112>
		LOG_ERR("JEDEC ID read failed: %d", rc);
1c012258:	1c015537          	lui	a0,0x1c015
1c01225c:	04500593          	li	a1,69
1c012260:	fbc50513          	addi	a0,a0,-68 # 1c014fbc <mcause_str.0+0x124>
1c012264:	b759                	j	1c0121ea <spi_nor_init+0x78>
		LOG_WRN("Waiting until flash is ready");
1c012266:	1c015537          	lui	a0,0x1c015
1c01226a:	05700593          	li	a1,87
1c01226e:	f6850513          	addi	a0,a0,-152 # 1c014f68 <mcause_str.0+0xd0>
1c012272:	d68ff0ef          	jal	ra,1c0117da <z_log_minimal_printk>
		rc = spi_nor_wait_until_ready(dev, WAIT_READY_REGISTER);
1c012276:	f3c42503          	lw	a0,-196(s0)
1c01227a:	4601                	li	a2,0
1c01227c:	4581                	li	a1,0
1c01227e:	3961                	jal	1c011f16 <spi_nor_wait_until_ready>
1c012280:	862a                	mv	a2,a0
1c012282:	b7a1                	j	1c0121ca <spi_nor_init+0x58>
	if (cfg->has_lock != 0) {
1c012284:	02094783          	lbu	a5,32(s2)
1c012288:	c3c1                	beqz	a5,1c012308 <spi_nor_init+0x196>
		acquire_device(dev);
1c01228a:	f3c42783          	lw	a5,-196(s0)
1c01228e:	4b88                	lw	a0,16(a5)
1c012290:	3e9d                	jal	1c011e06 <acquire_device.isra.0>
		rc = spi_nor_rdsr(dev);
1c012292:	f3c42503          	lw	a0,-196(s0)
1c012296:	318d                	jal	1c011ef8 <spi_nor_rdsr>
1c012298:	84aa                	mv	s1,a0
		if (rc > 0) {
1c01229a:	06a05263          	blez	a0,1c0122fe <spi_nor_init+0x18c>
			rc = spi_nor_wrsr(dev, rc & ~cfg->has_lock);
1c01229e:	02094783          	lbu	a5,32(s2)
	int ret = spi_nor_cmd_write(dev, SPI_NOR_CMD_WREN);
1c0122a2:	4701                	li	a4,0
1c0122a4:	4681                	li	a3,0
			rc = spi_nor_wrsr(dev, rc & ~cfg->has_lock);
1c0122a6:	fff7c793          	not	a5,a5
1c0122aa:	8fe9                	and	a5,a5,a0
	int ret = spi_nor_cmd_write(dev, SPI_NOR_CMD_WREN);
1c0122ac:	f3c42503          	lw	a0,-196(s0)
1c0122b0:	f6f40823          	sb	a5,-144(s0)
1c0122b4:	08000613          	li	a2,128
1c0122b8:	4781                	li	a5,0
1c0122ba:	4599                	li	a1,6
1c0122bc:	3e89                	jal	1c011e0e <spi_nor_access>
1c0122be:	84aa                	mv	s1,a0
	if (ret != 0) {
1c0122c0:	cd09                	beqz	a0,1c0122da <spi_nor_init+0x168>
		release_device(dev);
1c0122c2:	f3c42783          	lw	a5,-196(s0)
1c0122c6:	4b88                	lw	a0,16(a5)
1c0122c8:	3e2d                	jal	1c011e02 <release_device.isra.0>
			LOG_ERR("BP clear failed: %d\n", rc);
1c0122ca:	1c015537          	lui	a0,0x1c015
1c0122ce:	8626                	mv	a2,s1
1c0122d0:	04500593          	li	a1,69
1c0122d4:	fdc50513          	addi	a0,a0,-36 # 1c014fdc <mcause_str.0+0x144>
1c0122d8:	bf09                	j	1c0121ea <spi_nor_init+0x78>
	ret = spi_nor_access(dev, SPI_NOR_CMD_WRSR, NOR_ACCESS_WRITE, 0, &sr,
1c0122da:	f3c42503          	lw	a0,-196(s0)
1c0122de:	4785                	li	a5,1
1c0122e0:	f7040713          	addi	a4,s0,-144
1c0122e4:	4681                	li	a3,0
1c0122e6:	08000613          	li	a2,128
1c0122ea:	4585                	li	a1,1
1c0122ec:	360d                	jal	1c011e0e <spi_nor_access>
1c0122ee:	84aa                	mv	s1,a0
	if (ret != 0) {
1c0122f0:	f969                	bnez	a0,1c0122c2 <spi_nor_init+0x150>
	return spi_nor_wait_until_ready(dev, WAIT_READY_REGISTER);
1c0122f2:	f3c42503          	lw	a0,-196(s0)
1c0122f6:	4581                	li	a1,0
1c0122f8:	4601                	li	a2,0
1c0122fa:	3931                	jal	1c011f16 <spi_nor_wait_until_ready>
1c0122fc:	84aa                	mv	s1,a0
		release_device(dev);
1c0122fe:	f3c42783          	lw	a5,-196(s0)
1c012302:	4b88                	lw	a0,16(a5)
1c012304:	3cfd                	jal	1c011e02 <release_device.isra.0>
		if (rc != 0) {
1c012306:	f0f1                	bnez	s1,1c0122ca <spi_nor_init+0x158>
	acquire_device(dev);
1c012308:	f3c42783          	lw	a5,-196(s0)
{
1c01230c:	f2242c23          	sw	sp,-200(s0)
	acquire_device(dev);
1c012310:	4b88                	lw	a0,16(a5)
1c012312:	3cd5                	jal	1c011e06 <acquire_device.isra.0>
	return spi_nor_access(dev, JESD216_CMD_READ_SFDP,
1c012314:	f3c42503          	lw	a0,-196(s0)
1c012318:	47e1                	li	a5,24
1c01231a:	f5840713          	addi	a4,s0,-168
1c01231e:	4681                	li	a3,0
1c012320:	4615                	li	a2,5
1c012322:	05a00593          	li	a1,90
1c012326:	34e5                	jal	1c011e0e <spi_nor_access>
	release_device(dev);
1c012328:	f3c42783          	lw	a5,-196(s0)
	return spi_nor_access(dev, JESD216_CMD_READ_SFDP,
1c01232c:	892a                	mv	s2,a0
	release_device(dev);
1c01232e:	4b88                	lw	a0,16(a5)
1c012330:	3cc9                	jal	1c011e02 <release_device.isra.0>
	if (rc != 0) {
1c012332:	02090363          	beqz	s2,1c012358 <spi_nor_init+0x1e6>
		LOG_ERR("SFDP read failed: %d", rc);
1c012336:	1c015537          	lui	a0,0x1c015
1c01233a:	864a                	mv	a2,s2
1c01233c:	04500593          	li	a1,69
1c012340:	ff850513          	addi	a0,a0,-8 # 1c014ff8 <mcause_str.0+0x160>
1c012344:	c96ff0ef          	jal	ra,1c0117da <z_log_minimal_printk>
		LOG_ERR("SFDP read failed: %d", rc);
1c012348:	1c015537          	lui	a0,0x1c015
1c01234c:	864a                	mv	a2,s2
1c01234e:	04500593          	li	a1,69
1c012352:	ff850513          	addi	a0,a0,-8 # 1c014ff8 <mcause_str.0+0x160>
1c012356:	bd51                	j	1c0121ea <spi_nor_init+0x78>
 * If this compares equal to JESD216_SFDP_MAGIC then the SFDP header
 * may have been read correctly.
 */
static inline uint32_t jesd216_sfdp_magic(const struct jesd216_sfdp_header *hp)
{
	return sys_le32_to_cpu(hp->magic);
1c012358:	f5842603          	lw	a2,-168(s0)
	if (magic != JESD216_SFDP_MAGIC) {
1c01235c:	504447b7          	lui	a5,0x50444
1c012360:	65378793          	addi	a5,a5,1619 # 50444653 <__kernel_ram_end+0x3442d363>
1c012364:	00f60c63          	beq	a2,a5,1c01237c <spi_nor_init+0x20a>
		LOG_ERR("SFDP magic %08x invalid", magic);
1c012368:	1c015537          	lui	a0,0x1c015
1c01236c:	04500593          	li	a1,69
1c012370:	01450513          	addi	a0,a0,20 # 1c015014 <mcause_str.0+0x17c>
1c012374:	c66ff0ef          	jal	ra,1c0117da <z_log_minimal_printk>
		return -EINVAL;
1c012378:	5929                	li	s2,-22
	if (rc != 0) {
1c01237a:	b7f9                	j	1c012348 <spi_nor_init+0x1d6>
	LOG_INF("%s: SFDP v %u.%u AP %x with %u PH", dev->name,
1c01237c:	f3c42603          	lw	a2,-196(s0)
1c012380:	f5e44803          	lbu	a6,-162(s0)
1c012384:	f5f44783          	lbu	a5,-161(s0)
1c012388:	f5c44703          	lbu	a4,-164(s0)
1c01238c:	f5d44683          	lbu	a3,-163(s0)
1c012390:	4210                	lw	a2,0(a2)
1c012392:	1c015537          	lui	a0,0x1c015
1c012396:	0805                	addi	a6,a6,1
1c012398:	04900593          	li	a1,73
1c01239c:	03450513          	addi	a0,a0,52 # 1c015034 <mcause_str.0+0x19c>
1c0123a0:	c3aff0ef          	jal	ra,1c0117da <z_log_minimal_printk>
	const struct jesd216_param_header *phpe = php + MIN(decl_nph, 1 + hp->nph);
1c0123a4:	f5e44783          	lbu	a5,-162(s0)
1c0123a8:	4685                	li	a3,1
1c0123aa:	4741                	li	a4,16
1c0123ac:	00f6e763          	bltu	a3,a5,1c0123ba <spi_nor_init+0x248>
1c0123b0:	0785                	addi	a5,a5,1
1c0123b2:	0ff7f793          	zext.b	a5,a5
1c0123b6:	00379713          	slli	a4,a5,0x3
1c0123ba:	f6040a13          	addi	s4,s0,-160
1c0123be:	00ea07b3          	add	a5,s4,a4
		if (id == JESD216_SFDP_PARAM_ID_BFP) {
1c0123c2:	6ac1                	lui	s5,0x10
	const struct jesd216_param_header *phpe = php + MIN(decl_nph, 1 + hp->nph);
1c0123c4:	f2f42a23          	sw	a5,-204(s0)
	const struct jesd216_param_header *php = hp->phdr;
1c0123c8:	84d2                	mv	s1,s4
		if (id == JESD216_SFDP_PARAM_ID_BFP) {
1c0123ca:	f00a8a93          	addi	s5,s5,-256 # ff00 <CONFIG_SYS_CLOCK_TICKS_PER_SEC+0x84ee>
			LOG_DBG("Erase %u with %02x", (uint32_t)BIT(etp->exp), etp->cmd);
1c0123ce:	1c015c37          	lui	s8,0x1c015
	LOG_DBG("Page size %u bytes", data->page_size);
1c0123d2:	1c015cb7          	lui	s9,0x1c015
	while (php != phpe) {
1c0123d6:	f3442783          	lw	a5,-204(s0)
1c0123da:	06979763          	bne	a5,s1,1c012448 <spi_nor_init+0x2d6>
1c0123de:	f3c42783          	lw	a5,-196(s0)
1c0123e2:	f3842103          	lw	sp,-200(s0)
	rc = setup_pages_layout(dev);
1c0123e6:	0107a903          	lw	s2,16(a5)
	uint8_t exp = 0;
1c0123ea:	4781                	li	a5,0
	return data->flash_size;
1c0123ec:	01c92483          	lw	s1,28(s2)
	for (size_t i = 0; i < ARRAY_SIZE(data->erase_types); ++i) {
1c0123f0:	01290713          	addi	a4,s2,18
1c0123f4:	01a90613          	addi	a2,s2,26
		if ((etp->cmd != 0)
1c0123f8:	fff74683          	lbu	a3,-1(a4)
1c0123fc:	c699                	beqz	a3,1c01240a <spi_nor_init+0x298>
1c0123fe:	00074683          	lbu	a3,0(a4)
		    && ((exp == 0) || (etp->exp < exp))) {
1c012402:	c399                	beqz	a5,1c012408 <spi_nor_init+0x296>
1c012404:	00f6f363          	bgeu	a3,a5,1c01240a <spi_nor_init+0x298>
			exp = etp->exp;
1c012408:	87b6                	mv	a5,a3
	for (size_t i = 0; i < ARRAY_SIZE(data->erase_types); ++i) {
1c01240a:	0709                	addi	a4,a4,2
1c01240c:	fec716e3          	bne	a4,a2,1c0123f8 <spi_nor_init+0x286>
	if (exp == 0) {
1c012410:	32078763          	beqz	a5,1c01273e <spi_nor_init+0x5cc>
	uint32_t erase_size = BIT(exp);
1c012414:	4685                	li	a3,1
1c012416:	00f696b3          	sll	a3,a3,a5
	if ((layout_page_size % erase_size) != 0) {
1c01241a:	fff68793          	addi	a5,a3,-1 # 7effffff <__kernel_ram_end+0x62fe8d0f>
1c01241e:	6741                	lui	a4,0x10
1c012420:	8ff9                	and	a5,a5,a4
1c012422:	28078c63          	beqz	a5,1c0126ba <spi_nor_init+0x548>
		LOG_ERR("layout page %u not compatible with erase size %u",
1c012426:	1c015537          	lui	a0,0x1c015
1c01242a:	6641                	lui	a2,0x10
1c01242c:	04500593          	li	a1,69
1c012430:	13450513          	addi	a0,a0,308 # 1c015134 <mcause_str.0+0x29c>
1c012434:	ba6ff0ef          	jal	ra,1c0117da <z_log_minimal_printk>
		return -EINVAL;
1c012438:	5629                	li	a2,-22
		LOG_ERR("layout setup failed: %d", rc);
1c01243a:	1c015537          	lui	a0,0x1c015
1c01243e:	04500593          	li	a1,69
1c012442:	1c450513          	addi	a0,a0,452 # 1c0151c4 <mcause_str.0+0x32c>
1c012446:	b355                	j	1c0121ea <spi_nor_init+0x78>
	return ((uint16_t)hp->id_msb << 8) | hp->id_lsb;
1c012448:	0074c903          	lbu	s2,7(s1)
1c01244c:	0004c783          	lbu	a5,0(s1)
		| (hp->ptp[1] << 8)
1c012450:	0054c703          	lbu	a4,5(s1)
	return ((uint16_t)hp->id_msb << 8) | hp->id_lsb;
1c012454:	0922                	slli	s2,s2,0x8
1c012456:	00f96933          	or	s2,s2,a5
	return ((hp->ptp[2] << 16)
1c01245a:	0064c783          	lbu	a5,6(s1)
		| (hp->ptp[0] << 0));
1c01245e:	0044c883          	lbu	a7,4(s1)
		| (hp->ptp[1] << 8)
1c012462:	0722                	slli	a4,a4,0x8
	return ((hp->ptp[2] << 16)
1c012464:	07c2                	slli	a5,a5,0x10
		| (hp->ptp[1] << 8)
1c012466:	8fd9                	or	a5,a5,a4
		LOG_INF("PH%u: %04x rev %u.%u: %u DW @ %x",
1c012468:	0117e8b3          	or	a7,a5,a7
1c01246c:	0034c803          	lbu	a6,3(s1)
1c012470:	0014c783          	lbu	a5,1(s1)
1c012474:	0024c703          	lbu	a4,2(s1)
1c012478:	41448633          	sub	a2,s1,s4
1c01247c:	1c015537          	lui	a0,0x1c015
1c012480:	86ca                	mv	a3,s2
1c012482:	860d                	srai	a2,a2,0x3
1c012484:	04900593          	li	a1,73
1c012488:	05c50513          	addi	a0,a0,92 # 1c01505c <mcause_str.0+0x1c4>
1c01248c:	b4eff0ef          	jal	ra,1c0117da <z_log_minimal_printk>
		if (id == JESD216_SFDP_PARAM_ID_BFP) {
1c012490:	1b591663          	bne	s2,s5,1c01263c <spi_nor_init+0x4ca>
	return ((hp->ptp[2] << 16)
1c012494:	0064c903          	lbu	s2,6(s1)
		| (hp->ptp[1] << 8)
1c012498:	0054c783          	lbu	a5,5(s1)
	return ((hp->ptp[2] << 16)
1c01249c:	0942                	slli	s2,s2,0x10
		| (hp->ptp[1] << 8)
1c01249e:	07a2                	slli	a5,a5,0x8
1c0124a0:	00f96933          	or	s2,s2,a5
		| (hp->ptp[0] << 0));
1c0124a4:	0044c783          	lbu	a5,4(s1)
1c0124a8:	00f96933          	or	s2,s2,a5
	acquire_device(dev);
1c0124ac:	f3c42783          	lw	a5,-196(s0)
1c0124b0:	4b88                	lw	a0,16(a5)
1c0124b2:	955ff0ef          	jal	ra,1c011e06 <acquire_device.isra.0>
	return spi_nor_access(dev, JESD216_CMD_READ_SFDP,
1c0124b6:	f3c42503          	lw	a0,-196(s0)
1c0124ba:	05000793          	li	a5,80
1c0124be:	00891693          	slli	a3,s2,0x8
1c0124c2:	f7040713          	addi	a4,s0,-144
1c0124c6:	4615                	li	a2,5
1c0124c8:	05a00593          	li	a1,90
1c0124cc:	943ff0ef          	jal	ra,1c011e0e <spi_nor_access>
	release_device(dev);
1c0124d0:	f3c42783          	lw	a5,-196(s0)
	return spi_nor_access(dev, JESD216_CMD_READ_SFDP,
1c0124d4:	892a                	mv	s2,a0
	release_device(dev);
1c0124d6:	4b88                	lw	a0,16(a5)
1c0124d8:	92bff0ef          	jal	ra,1c011e02 <release_device.isra.0>
			if (rc == 0) {
1c0124dc:	1c091063          	bnez	s2,1c01269c <spi_nor_init+0x52a>
	struct spi_nor_data *data = dev->data;
1c0124e0:	f3c42783          	lw	a5,-196(s0)
}

/* Extract the density of the chip in bits from BFP DW2. */
static inline uint64_t jesd216_bfp_density(const struct jesd216_bfp *hp)
{
	uint32_t dw = sys_le32_to_cpu(hp->dw2);
1c0124e4:	f7442603          	lw	a2,-140(s0)
1c0124e8:	0107ab03          	lw	s6,16(a5)
	struct jesd216_erase_type *etp = data->erase_types;
1c0124ec:	011b0993          	addi	s3,s6,17

	if (dw & BIT(31)) {
1c0124f0:	14065863          	bgez	a2,1c012640 <spi_nor_init+0x4ce>
		return BIT64(dw & BIT_MASK(31));
1c0124f4:	0606                	slli	a2,a2,0x1
1c0124f6:	8205                	srli	a2,a2,0x1
1c0124f8:	4505                	li	a0,1
1c0124fa:	4581                	li	a1,0
1c0124fc:	8b8fe0ef          	jal	ra,1c0105b4 <__ashldi3>
1c012500:	862a                	mv	a2,a0
	LOG_INF("%s: %u %ciBy flash", dev->name,
1c012502:	f3c42783          	lw	a5,-196(s0)
	const size_t flash_size = jesd216_bfp_density(bfp) / 8U;
1c012506:	820d                	srli	a2,a2,0x3
1c012508:	01d59913          	slli	s2,a1,0x1d
1c01250c:	00c96933          	or	s2,s2,a2
	LOG_INF("%s: %u %ciBy flash", dev->name,
1c012510:	4390                	lw	a2,0(a5)
1c012512:	001007b7          	lui	a5,0x100
1c012516:	12f97863          	bgeu	s2,a5,1c012646 <spi_nor_init+0x4d4>
1c01251a:	00a95693          	srli	a3,s2,0xa
1c01251e:	06b00713          	li	a4,107
1c012522:	1c0157b7          	lui	a5,0x1c015
1c012526:	08478513          	addi	a0,a5,132 # 1c015084 <mcause_str.0+0x1ec>
1c01252a:	04900593          	li	a1,73
1c01252e:	aacff0ef          	jal	ra,1c0117da <z_log_minimal_printk>
	memset(data->erase_types, 0, sizeof(data->erase_types));
1c012532:	4621                	li	a2,8
1c012534:	4581                	li	a1,0
1c012536:	854e                	mv	a0,s3
1c012538:	7f5010ef          	jal	ra,1c01452c <memset>
	for (uint8_t ti = 1; ti <= ARRAY_SIZE(data->erase_types); ++ti) {
1c01253c:	4b85                	li	s7,1
			LOG_DBG("Erase %u with %02x", (uint32_t)BIT(etp->exp), etp->cmd);
1c01253e:	4d85                	li	s11,1
	for (uint8_t ti = 1; ti <= ARRAY_SIZE(data->erase_types); ++ti) {
1c012540:	4d15                	li	s10,5
		if (jesd216_bfp_erase(bfp, ti, etp) == 0) {
1c012542:	864e                	mv	a2,s3
1c012544:	85de                	mv	a1,s7
1c012546:	f7040513          	addi	a0,s0,-144
1c01254a:	80fff0ef          	jal	ra,1c011d58 <jesd216_bfp_erase>
1c01254e:	ed09                	bnez	a0,1c012568 <spi_nor_init+0x3f6>
			LOG_DBG("Erase %u with %02x", (uint32_t)BIT(etp->exp), etp->cmd);
1c012550:	0019c603          	lbu	a2,1(s3)
1c012554:	0009c683          	lbu	a3,0(s3)
1c012558:	04400593          	li	a1,68
1c01255c:	00cd9633          	sll	a2,s11,a2
1c012560:	09cc0513          	addi	a0,s8,156 # 1c01509c <mcause_str.0+0x204>
1c012564:	a76ff0ef          	jal	ra,1c0117da <z_log_minimal_printk>
	for (uint8_t ti = 1; ti <= ARRAY_SIZE(data->erase_types); ++ti) {
1c012568:	001b8793          	addi	a5,s7,1
1c01256c:	0ff7fb93          	zext.b	s7,a5
		++etp;
1c012570:	0989                	addi	s3,s3,2
	for (uint8_t ti = 1; ti <= ARRAY_SIZE(data->erase_types); ++ti) {
1c012572:	fdab98e3          	bne	s7,s10,1c012542 <spi_nor_init+0x3d0>
 */
static inline uint32_t jesd216_bfp_page_size(const struct jesd216_param_header *php,
					     const struct jesd216_bfp *bfp)
{
	/* Page size introduced in JESD216A */
	if (php->len_dw < 11) {
1c012576:	0034c703          	lbu	a4,3(s1)
1c01257a:	47a9                	li	a5,10
		return 256;
1c01257c:	10000613          	li	a2,256
	if (php->len_dw < 11) {
1c012580:	00e7f963          	bgeu	a5,a4,1c012592 <spi_nor_init+0x420>
	}

	uint32_t dw11 = sys_le32_to_cpu(bfp->dw10[1]);
	uint8_t exp = (dw11 >> 4) & 0x0F;
1c012584:	f9842783          	lw	a5,-104(s0)

	return BIT(exp);
1c012588:	4605                	li	a2,1
	uint8_t exp = (dw11 >> 4) & 0x0F;
1c01258a:	8391                	srli	a5,a5,0x4
	return BIT(exp);
1c01258c:	8bbd                	andi	a5,a5,15
1c01258e:	00f61633          	sll	a2,a2,a5
	data->page_size = jesd216_bfp_page_size(php, bfp);
1c012592:	00cb1d23          	sh	a2,26(s6)
	data->flash_size = flash_size;
1c012596:	012b2e23          	sw	s2,28(s6)
	LOG_DBG("Page size %u bytes", data->page_size);
1c01259a:	04400593          	li	a1,68
1c01259e:	0b4c8513          	addi	a0,s9,180 # 1c0150b4 <mcause_str.0+0x21c>
1c0125a2:	a38ff0ef          	jal	ra,1c0117da <z_log_minimal_printk>
		>> JESD216_SFDP_BFP_DW1_ADDRBYTES_SHFT;
1c0125a6:	f7042783          	lw	a5,-144(s0)
1c0125aa:	83c5                	srli	a5,a5,0x11
	if (jesd216_bfp_addrbytes(bfp) != JESD216_SFDP_BFP_DW1_ADDRBYTES_VAL_3B) {
1c0125ac:	8b8d                	andi	a5,a5,3
1c0125ae:	c7d9                	beqz	a5,1c01263c <spi_nor_init+0x4ca>
		if (jesd216_bfp_decode_dw16(php, bfp, &dw16) == 0) {
1c0125b0:	f5440613          	addi	a2,s0,-172
1c0125b4:	f7040593          	addi	a1,s0,-144
1c0125b8:	8526                	mv	a0,s1
1c0125ba:	fcaff0ef          	jal	ra,1c011d84 <jesd216_bfp_decode_dw16>
1c0125be:	ed3d                	bnez	a0,1c01263c <spi_nor_init+0x4ca>
			rc = spi_nor_set_address_mode(dev, dw16.enter_4ba);
1c0125c0:	f5444903          	lbu	s2,-172(s0)
	LOG_DBG("Checking enter-4byte-addr %02x", enter_4byte_addr);
1c0125c4:	1c015537          	lui	a0,0x1c015
1c0125c8:	04400593          	li	a1,68
1c0125cc:	864a                	mv	a2,s2
1c0125ce:	0cc50513          	addi	a0,a0,204 # 1c0150cc <mcause_str.0+0x234>
1c0125d2:	a08ff0ef          	jal	ra,1c0117da <z_log_minimal_printk>
	    || (enter_4byte_addr == 0xff)) {
1c0125d6:	fff90793          	addi	a5,s2,-1
	if ((enter_4byte_addr == 0)
1c0125da:	0ff7f793          	zext.b	a5,a5
1c0125de:	0fd00713          	li	a4,253
1c0125e2:	04f76d63          	bltu	a4,a5,1c01263c <spi_nor_init+0x4ca>
	if ((enter_4byte_addr & 0x0b) == 0) {
1c0125e6:	00b97793          	andi	a5,s2,11
1c0125ea:	c7e9                	beqz	a5,1c0126b4 <spi_nor_init+0x542>
	acquire_device(dev);
1c0125ec:	f3c42783          	lw	a5,-196(s0)
1c0125f0:	4b88                	lw	a0,16(a5)
1c0125f2:	815ff0ef          	jal	ra,1c011e06 <acquire_device.isra.0>
	if ((enter_4byte_addr & 0x08) != 0) {
1c0125f6:	00897793          	andi	a5,s2,8
1c0125fa:	cbb9                	beqz	a5,1c012650 <spi_nor_init+0x4de>
		uint8_t sr = BIT(7);
1c0125fc:	f8000793          	li	a5,-128
1c012600:	f4f407a3          	sb	a5,-177(s0)
		ret = spi_nor_access(dev, 0x17, NOR_ACCESS_WRITE, 0, &sr, sizeof(sr));
1c012604:	f4f40713          	addi	a4,s0,-177
1c012608:	4785                	li	a5,1
1c01260a:	4681                	li	a3,0
1c01260c:	08000613          	li	a2,128
1c012610:	45dd                	li	a1,23
		ret = spi_nor_cmd_write(dev, SPI_NOR_CMD_4BA);
1c012612:	f3c42503          	lw	a0,-196(s0)
1c012616:	ff8ff0ef          	jal	ra,1c011e0e <spi_nor_access>
		struct spi_nor_data *data = dev->data;
1c01261a:	f3c42783          	lw	a5,-196(s0)
		ret = spi_nor_cmd_write(dev, SPI_NOR_CMD_4BA);
1c01261e:	892a                	mv	s2,a0
		struct spi_nor_data *data = dev->data;
1c012620:	4b88                	lw	a0,16(a5)
	if (ret == 0) {
1c012622:	06091263          	bnez	s2,1c012686 <spi_nor_init+0x514>
		data->flag_access_32bit = true;
1c012626:	01054783          	lbu	a5,16(a0)
1c01262a:	0017e793          	ori	a5,a5,1
1c01262e:	00f50823          	sb	a5,16(a0)
	release_device(dev);
1c012632:	f3c42783          	lw	a5,-196(s0)
1c012636:	4b88                	lw	a0,16(a5)
1c012638:	fcaff0ef          	jal	ra,1c011e02 <release_device.isra.0>
		++php;
1c01263c:	04a1                	addi	s1,s1,8
1c01263e:	bb61                	j	1c0123d6 <spi_nor_init+0x264>
	return 1U + (uint64_t)dw;
1c012640:	0605                	addi	a2,a2,1 # 10001 <CONFIG_SPI_NOR_FLASH_LAYOUT_PAGE_SIZE+0x1>
1c012642:	4581                	li	a1,0
1c012644:	bd7d                	j	1c012502 <spi_nor_init+0x390>
	LOG_INF("%s: %u %ciBy flash", dev->name,
1c012646:	01495693          	srli	a3,s2,0x14
1c01264a:	04d00713          	li	a4,77
1c01264e:	bdd1                	j	1c012522 <spi_nor_init+0x3b0>
	if ((enter_4byte_addr & 0x02) != 0) {
1c012650:	00297913          	andi	s2,s2,2
1c012654:	00091a63          	bnez	s2,1c012668 <spi_nor_init+0x4f6>
		ret = spi_nor_cmd_write(dev, SPI_NOR_CMD_4BA);
1c012658:	4781                	li	a5,0
1c01265a:	4701                	li	a4,0
1c01265c:	4681                	li	a3,0
1c01265e:	08000613          	li	a2,128
1c012662:	0b700593          	li	a1,183
1c012666:	b775                	j	1c012612 <spi_nor_init+0x4a0>
		ret = spi_nor_cmd_write(dev, SPI_NOR_CMD_WREN);
1c012668:	f3c42503          	lw	a0,-196(s0)
1c01266c:	4781                	li	a5,0
1c01266e:	4701                	li	a4,0
1c012670:	4681                	li	a3,0
1c012672:	08000613          	li	a2,128
1c012676:	4599                	li	a1,6
1c012678:	f96ff0ef          	jal	ra,1c011e0e <spi_nor_access>
1c01267c:	892a                	mv	s2,a0
	if (ret == 0) {
1c01267e:	dd69                	beqz	a0,1c012658 <spi_nor_init+0x4e6>
	release_device(dev);
1c012680:	f3c42783          	lw	a5,-196(s0)
1c012684:	4b88                	lw	a0,16(a5)
1c012686:	f7cff0ef          	jal	ra,1c011e02 <release_device.isra.0>
			LOG_ERR("Unable to enter 4-byte mode: %d\n", rc);
1c01268a:	1c015537          	lui	a0,0x1c015
1c01268e:	864a                	mv	a2,s2
1c012690:	04500593          	li	a1,69
1c012694:	0f050513          	addi	a0,a0,240 # 1c0150f0 <mcause_str.0+0x258>
1c012698:	942ff0ef          	jal	ra,1c0117da <z_log_minimal_printk>
				LOG_INF("SFDP BFP failed: %d", rc);
1c01269c:	1c015537          	lui	a0,0x1c015
1c0126a0:	864a                	mv	a2,s2
1c0126a2:	04900593          	li	a1,73
1c0126a6:	11850513          	addi	a0,a0,280 # 1c015118 <mcause_str.0+0x280>
1c0126aa:	930ff0ef          	jal	ra,1c0117da <z_log_minimal_printk>
				break;
1c0126ae:	f3842103          	lw	sp,-200(s0)
	if (rc != 0) {
1c0126b2:	b959                	j	1c012348 <spi_nor_init+0x1d6>
		return -ENOTSUP;
1c0126b4:	f7a00913          	li	s2,-134
1c0126b8:	bfc9                	j	1c01268a <spi_nor_init+0x518>
	if ((flash_size % layout_page_size) != 0) {
1c0126ba:	01049793          	slli	a5,s1,0x10
1c0126be:	83c1                	srli	a5,a5,0x10
1c0126c0:	cb99                	beqz	a5,1c0126d6 <spi_nor_init+0x564>
		LOG_INF("layout page %u wastes space with device size %zu",
1c0126c2:	1c015537          	lui	a0,0x1c015
1c0126c6:	86a6                	mv	a3,s1
1c0126c8:	6641                	lui	a2,0x10
1c0126ca:	04900593          	li	a1,73
1c0126ce:	16c50513          	addi	a0,a0,364 # 1c01516c <mcause_str.0+0x2d4>
1c0126d2:	908ff0ef          	jal	ra,1c0117da <z_log_minimal_printk>
	data->layout.pages_size = layout_page_size;
1c0126d6:	67c1                	lui	a5,0x10
	data->layout.pages_count = flash_size / layout_page_size;
1c0126d8:	0104d613          	srli	a2,s1,0x10
	LOG_DBG("layout %zu x %zu By pages", data->layout.pages_count, data->layout.pages_size);
1c0126dc:	1c015537          	lui	a0,0x1c015
	data->layout.pages_size = layout_page_size;
1c0126e0:	02f92223          	sw	a5,36(s2)
	data->layout.pages_count = flash_size / layout_page_size;
1c0126e4:	02c92023          	sw	a2,32(s2)
	LOG_DBG("layout %zu x %zu By pages", data->layout.pages_count, data->layout.pages_size);
1c0126e8:	66c1                	lui	a3,0x10
1c0126ea:	04400593          	li	a1,68
1c0126ee:	1a450513          	addi	a0,a0,420 # 1c0151a4 <mcause_str.0+0x30c>
1c0126f2:	8e8ff0ef          	jal	ra,1c0117da <z_log_minimal_printk>
			acquire_device(dev);
1c0126f6:	f3c42783          	lw	a5,-196(s0)
1c0126fa:	4b88                	lw	a0,16(a5)
1c0126fc:	f0aff0ef          	jal	ra,1c011e06 <acquire_device.isra.0>
	if (cfg->dpd_exist) {
1c012700:	f3c42783          	lw	a5,-196(s0)
1c012704:	43dc                	lw	a5,4(a5)
1c012706:	0217c783          	lbu	a5,33(a5) # 10021 <CONFIG_SPI_NOR_FLASH_LAYOUT_PAGE_SIZE+0x21>
1c01270a:	8b89                	andi	a5,a5,2
1c01270c:	cf85                	beqz	a5,1c012744 <spi_nor_init+0x5d2>
		ret = spi_nor_cmd_write(dev, SPI_NOR_CMD_DPD);
1c01270e:	f3c42503          	lw	a0,-196(s0)
1c012712:	4781                	li	a5,0
1c012714:	4701                	li	a4,0
1c012716:	4681                	li	a3,0
1c012718:	08000613          	li	a2,128
1c01271c:	0b900593          	li	a1,185
1c012720:	eeeff0ef          	jal	ra,1c011e0e <spi_nor_access>
			release_device(dev);
1c012724:	f3c42783          	lw	a5,-196(s0)
		ret = spi_nor_cmd_write(dev, SPI_NOR_CMD_DPD);
1c012728:	84aa                	mv	s1,a0
			release_device(dev);
1c01272a:	4b88                	lw	a0,16(a5)
1c01272c:	ed6ff0ef          	jal	ra,1c011e02 <release_device.isra.0>
{
	int rc;

	/* When power management is not enabled, all drivers should initialise to active state */
	rc = action_cb(dev, PM_DEVICE_ACTION_TURN_ON);
	if ((rc < 0) && (rc != -ENOTSUP)) {
1c012730:	0004df63          	bgez	s1,1c01274e <spi_nor_init+0x5dc>
1c012734:	f7a00793          	li	a5,-134
1c012738:	00f48b63          	beq	s1,a5,1c01274e <spi_nor_init+0x5dc>
1c01273c:	b4c1                	j	1c0121fc <spi_nor_init+0x8a>
		return -ENOTSUP;
1c01273e:	f7a00613          	li	a2,-134
1c012742:	b9e5                	j	1c01243a <spi_nor_init+0x2c8>
			release_device(dev);
1c012744:	f3c42783          	lw	a5,-196(s0)
1c012748:	4b88                	lw	a0,16(a5)
1c01274a:	eb8ff0ef          	jal	ra,1c011e02 <release_device.isra.0>
		acquire_device(dev);
1c01274e:	f3c42783          	lw	a5,-196(s0)
	rc = action_cb(dev, PM_DEVICE_ACTION_RESUME);
	if (rc < 0) {
		return rc;
	}

	return 0;
1c012752:	4481                	li	s1,0
1c012754:	4b88                	lw	a0,16(a5)
1c012756:	eb0ff0ef          	jal	ra,1c011e06 <acquire_device.isra.0>
		release_device(dev);
1c01275a:	f3c42783          	lw	a5,-196(s0)
1c01275e:	4b88                	lw	a0,16(a5)
1c012760:	ea2ff0ef          	jal	ra,1c011e02 <release_device.isra.0>
	return pm_device_driver_init(dev, spi_nor_pm_control);
1c012764:	bc61                	j	1c0121fc <spi_nor_init+0x8a>

1c012766 <gpio_puppy_configure>:
	const struct gpio_puppy_config *config = dev->config;

	int pad_bit;
	int group;

	if (pin > 31) {
1c012766:	47fd                	li	a5,31
	const struct gpio_puppy_config *config = dev->config;
1c012768:	4148                	lw	a0,4(a0)
	if (pin > 31) {
1c01276a:	0cb7e463          	bltu	a5,a1,1c012832 <gpio_puppy_configure+0xcc>
	group = pin / 16;
	pad_bit = (pin % 16) * 2;

	/* Configure pin as gpio */
	/* GPIO pin cannot be input and output simultaneously */
	if ((flags & GPIO_INPUT) && (flags & GPIO_OUTPUT)) {
1c01276e:	00030837          	lui	a6,0x30
	pad_bit = (pin % 16) * 2;
1c012772:	00f5f793          	andi	a5,a1,15
	if ((flags & GPIO_INPUT) && (flags & GPIO_OUTPUT)) {
1c012776:	010676b3          	and	a3,a2,a6
	group = pin / 16;
1c01277a:	0045d713          	srli	a4,a1,0x4
	pad_bit = (pin % 16) * 2;
1c01277e:	0786                	slli	a5,a5,0x1
	if ((flags & GPIO_INPUT) && (flags & GPIO_OUTPUT)) {
1c012780:	07069163          	bne	a3,a6,1c0127e2 <gpio_puppy_configure+0x7c>
		PULP_PADMUX(group) &= ~(PULP_PAD_GPIO << pad_bit);
1c012784:	068416b7          	lui	a3,0x6841
1c012788:	0691                	addi	a3,a3,4 # 6841004 <CONFIG_SYS_CLOCK_HW_CYCLES_PER_SEC+0x552e304>
1c01278a:	9736                	add	a4,a4,a3
1c01278c:	070a                	slli	a4,a4,0x2
1c01278e:	00072803          	lw	a6,0(a4) # 10000 <CONFIG_SPI_NOR_FLASH_LAYOUT_PAGE_SIZE>
1c012792:	4685                	li	a3,1
1c012794:	00f697b3          	sll	a5,a3,a5
1c012798:	fff7c793          	not	a5,a5
1c01279c:	0107f7b3          	and	a5,a5,a6
1c0127a0:	c31c                	sw	a5,0(a4)
		sys_write32(sys_read32(config->base + GPIO_REG_GPIOEN) & ~BIT(pin),
1c0127a2:	411c                	lw	a5,0(a0)
1c0127a4:	00b696b3          	sll	a3,a3,a1
1c0127a8:	fff6c693          	not	a3,a3
	*(volatile uint16_t *)addr = data;
}

static ALWAYS_INLINE uint32_t sys_read32(mem_addr_t addr)
{
	return *(volatile uint32_t *)addr;
1c0127ac:	43d8                	lw	a4,4(a5)
1c0127ae:	8ef9                	and	a3,a3,a4
}

static ALWAYS_INLINE void sys_write32(uint32_t data, mem_addr_t addr)
{
	*(volatile uint32_t *)addr = data;
1c0127b0:	c3d4                	sw	a3,4(a5)
		sys_write32(sys_read32(config->base + GPIO_REG_GPIOEN) | BIT(pin),
			    config->base + GPIO_REG_GPIOEN);
	}

	/* Configure gpio direction */
	if (flags & GPIO_INPUT) {
1c0127b2:	67c1                	lui	a5,0x10
1c0127b4:	8ff1                	and	a5,a5,a2
1c0127b6:	cbb1                	beqz	a5,1c01280a <gpio_puppy_configure+0xa4>
	return *(volatile uint32_t *)addr;
1c0127b8:	4118                	lw	a4,0(a0)

		sys_write32(sys_read32(config->base + GPIO_REG_PADDIR) & ~BIT(pin),
1c0127ba:	4785                	li	a5,1
1c0127bc:	00b797b3          	sll	a5,a5,a1
1c0127c0:	4314                	lw	a3,0(a4)
1c0127c2:	fff7c793          	not	a5,a5
1c0127c6:	8ff5                	and	a5,a5,a3
	*(volatile uint32_t *)addr = data;
1c0127c8:	c31c                	sw	a5,0(a4)
	 * gpio.
	 * Interrupt for a gpio is:
	 * 1) enabled only via a call to gpio_puppy_enable_callback.
	 * 2) disabled only via a call to gpio_puppy_disabled_callback.
	 */
	if (!(flags & GPIO_INT_ENABLE)) {
1c0127ca:	004007b7          	lui	a5,0x400
1c0127ce:	8ff1                	and	a5,a5,a2
		return 0;
1c0127d0:	4501                	li	a0,0
	if (!(flags & GPIO_INT_ENABLE)) {
1c0127d2:	c3ad                	beqz	a5,1c012834 <gpio_puppy_configure+0xce>
	}

	/* Edge or Level triggered ? */
	if (!(flags & GPIO_INT_EDGE)) {
1c0127d4:	010007b7          	lui	a5,0x1000
1c0127d8:	8e7d                	and	a2,a2,a5
1c0127da:	ee29                	bnez	a2,1c012834 <gpio_puppy_configure+0xce>
		return -ENOTSUP;
1c0127dc:	f7a00513          	li	a0,-134
1c0127e0:	8082                	ret
	} else if ((flags & GPIO_INPUT) || (flags & GPIO_OUTPUT)) {
1c0127e2:	dae1                	beqz	a3,1c0127b2 <gpio_puppy_configure+0x4c>
		PULP_PADMUX(group) |= (PULP_PAD_GPIO << pad_bit);
1c0127e4:	068416b7          	lui	a3,0x6841
1c0127e8:	0691                	addi	a3,a3,4 # 6841004 <CONFIG_SYS_CLOCK_HW_CYCLES_PER_SEC+0x552e304>
1c0127ea:	9736                	add	a4,a4,a3
1c0127ec:	070a                	slli	a4,a4,0x2
1c0127ee:	00072803          	lw	a6,0(a4)
1c0127f2:	4685                	li	a3,1
1c0127f4:	00f697b3          	sll	a5,a3,a5
1c0127f8:	0107e7b3          	or	a5,a5,a6
1c0127fc:	c31c                	sw	a5,0(a4)
		sys_write32(sys_read32(config->base + GPIO_REG_GPIOEN) | BIT(pin),
1c0127fe:	411c                	lw	a5,0(a0)
1c012800:	00b696b3          	sll	a3,a3,a1
	return *(volatile uint32_t *)addr;
1c012804:	43d8                	lw	a4,4(a5)
1c012806:	8ed9                	or	a3,a3,a4
1c012808:	b765                	j	1c0127b0 <gpio_puppy_configure+0x4a>
	else if (flags & GPIO_OUTPUT) {
1c01280a:	000207b7          	lui	a5,0x20
1c01280e:	8ff1                	and	a5,a5,a2
1c012810:	dfcd                	beqz	a5,1c0127ca <gpio_puppy_configure+0x64>
1c012812:	4114                	lw	a3,0(a0)
		sys_write32(sys_read32(config->base + GPIO_REG_PADDIR) | BIT(pin),
1c012814:	4705                	li	a4,1
1c012816:	00b71733          	sll	a4,a4,a1
1c01281a:	429c                	lw	a5,0(a3)
1c01281c:	8fd9                	or	a5,a5,a4
	*(volatile uint32_t *)addr = data;
1c01281e:	c29c                	sw	a5,0(a3)
		if (flags & GPIO_OUTPUT_INIT_HIGH) {
1c012820:	000806b7          	lui	a3,0x80
1c012824:	8ef1                	and	a3,a3,a2
1c012826:	411c                	lw	a5,0(a0)
1c012828:	c299                	beqz	a3,1c01282e <gpio_puppy_configure+0xc8>
			sys_write32(config->base + GPIO_REG_PADOUTSET, BIT(pin));
1c01282a:	07c1                	addi	a5,a5,16 # 20010 <CONFIG_FLASH_LOAD_OFFSET+0x10>
1c01282c:	bf71                	j	1c0127c8 <gpio_puppy_configure+0x62>
			sys_write32(config->base + GPIO_REG_PADOUTCLR, BIT(pin));
1c01282e:	07d1                	addi	a5,a5,20
1c012830:	bf61                	j	1c0127c8 <gpio_puppy_configure+0x62>
		return -EINVAL;
1c012832:	5529                	li	a0,-22
	}

	return 0;
}
1c012834:	8082                	ret

1c012836 <gpio_puppy_port_get_raw>:
 */
static int gpio_puppy_port_get_raw(const struct device *dev, gpio_port_value_t *value)
{
	const struct gpio_puppy_config *config = dev->config;

	*value = sys_read32(config->base + GPIO_REG_PADIN);
1c012836:	415c                	lw	a5,4(a0)

	return 0;
}
1c012838:	4501                	li	a0,0
	*value = sys_read32(config->base + GPIO_REG_PADIN);
1c01283a:	439c                	lw	a5,0(a5)
	return *(volatile uint32_t *)addr;
1c01283c:	479c                	lw	a5,8(a5)
1c01283e:	c19c                	sw	a5,0(a1)
}
1c012840:	8082                	ret

1c012842 <gpio_puppy_port_set_masked_raw>:
static int gpio_puppy_port_set_masked_raw(const struct device *dev, gpio_port_pins_t mask,
					  gpio_port_value_t value)
{
	const struct gpio_puppy_config *config = dev->config;

	if (mask & value) {
1c012842:	00c5f733          	and	a4,a1,a2
	const struct gpio_puppy_config *config = dev->config;
1c012846:	415c                	lw	a5,4(a0)
	if (mask & value) {
1c012848:	c319                	beqz	a4,1c01284e <gpio_puppy_port_set_masked_raw+0xc>
		sys_write32(mask & value, config->base + GPIO_REG_PADOUTSET);
1c01284a:	4394                	lw	a3,0(a5)
	*(volatile uint32_t *)addr = data;
1c01284c:	ca98                	sw	a4,16(a3)
	}
	if (mask & ~value) {
1c01284e:	fff64613          	not	a2,a2
1c012852:	8df1                	and	a1,a1,a2
1c012854:	c199                	beqz	a1,1c01285a <gpio_puppy_port_set_masked_raw+0x18>
		sys_write32(mask & ~value, config->base + GPIO_REG_PADOUTCLR);
1c012856:	439c                	lw	a5,0(a5)
1c012858:	cbcc                	sw	a1,20(a5)
	}

	return 0;
}
1c01285a:	4501                	li	a0,0
1c01285c:	8082                	ret

1c01285e <gpio_puppy_port_set_bits_raw>:
 */
static int gpio_puppy_port_set_bits_raw(const struct device *dev, gpio_port_pins_t mask)
{
	const struct gpio_puppy_config *config = dev->config;

	sys_write32(mask, config->base + GPIO_REG_PADOUTSET);
1c01285e:	415c                	lw	a5,4(a0)

	return 0;
}
1c012860:	4501                	li	a0,0
	sys_write32(mask, config->base + GPIO_REG_PADOUTSET);
1c012862:	439c                	lw	a5,0(a5)
1c012864:	cb8c                	sw	a1,16(a5)
}
1c012866:	8082                	ret

1c012868 <gpio_puppy_port_clear_bits_raw>:
 */
static int gpio_puppy_port_clear_bits_raw(const struct device *dev, gpio_port_pins_t mask)
{
	const struct gpio_puppy_config *config = dev->config;

	sys_write32(mask, config->base + GPIO_REG_PADOUTCLR);
1c012868:	415c                	lw	a5,4(a0)

	return 0;
}
1c01286a:	4501                	li	a0,0
	sys_write32(mask, config->base + GPIO_REG_PADOUTCLR);
1c01286c:	439c                	lw	a5,0(a5)
1c01286e:	cbcc                	sw	a1,20(a5)
}
1c012870:	8082                	ret

1c012872 <gpio_puppy_port_toggle_bits>:
 */
static int gpio_puppy_port_toggle_bits(const struct device *dev, gpio_port_pins_t mask)
{
	const struct gpio_puppy_config *config = dev->config;

	uint32_t value = sys_read32(config->base + GPIO_REG_PADOUT);
1c012872:	415c                	lw	a5,4(a0)
1c012874:	439c                	lw	a5,0(a5)
	return *(volatile uint32_t *)addr;
1c012876:	47d0                	lw	a2,12(a5)

	return gpio_puppy_port_set_masked_raw(dev, mask, ~value);
1c012878:	fff64613          	not	a2,a2
1c01287c:	b7d9                	j	1c012842 <gpio_puppy_port_set_masked_raw>

1c01287e <gpio_puppy_pin_interrupt_configure>:
					      enum gpio_int_mode mode, enum gpio_int_trig trig)
{
	const struct gpio_puppy_config *config = dev->config;
	uint32_t inttype = 0;

	if (mode == GPIO_INT_MODE_DISABLED) {
1c01287e:	00200737          	lui	a4,0x200
{
1c012882:	87ae                	mv	a5,a1
	const struct gpio_puppy_config *config = dev->config;
1c012884:	414c                	lw	a1,4(a0)
	if (mode == GPIO_INT_MODE_DISABLED) {
1c012886:	00e61d63          	bne	a2,a4,1c0128a0 <gpio_puppy_pin_interrupt_configure+0x22>
		sys_write32(sys_read32(config->base + GPIO_REG_INTEN) & ~BIT(pin),
1c01288a:	4198                	lw	a4,0(a1)
1c01288c:	4585                	li	a1,1
1c01288e:	00f595b3          	sll	a1,a1,a5
1c012892:	4f14                	lw	a3,24(a4)
1c012894:	fff5c593          	not	a1,a1
1c012898:	8df5                	and	a1,a1,a3
	*(volatile uint32_t *)addr = data;
1c01289a:	cf0c                	sw	a1,24(a4)
			    config->base + GPIO_REG_INTEN);
		return 0;
1c01289c:	4501                	li	a0,0

	sys_write32(sys_read32(config->base + GPIO_REG_INTEN) | BIT(pin),
		    config->base + GPIO_REG_INTEN);

	return 0;
}
1c01289e:	8082                	ret
	if (mode == GPIO_INT_MODE_LEVEL) {
1c0128a0:	00400737          	lui	a4,0x400
		return -ENOTSUP;
1c0128a4:	f7a00513          	li	a0,-134
	if (mode == GPIO_INT_MODE_LEVEL) {
1c0128a8:	fee60be3          	beq	a2,a4,1c01289e <gpio_puppy_pin_interrupt_configure+0x20>
	switch (trig) {
1c0128ac:	04000737          	lui	a4,0x4000
1c0128b0:	04e68863          	beq	a3,a4,1c012900 <gpio_puppy_pin_interrupt_configure+0x82>
1c0128b4:	06000737          	lui	a4,0x6000
1c0128b8:	04e68663          	beq	a3,a4,1c012904 <gpio_puppy_pin_interrupt_configure+0x86>
1c0128bc:	02000737          	lui	a4,0x2000
1c0128c0:	5529                	li	a0,-22
1c0128c2:	fce69ee3          	bne	a3,a4,1c01289e <gpio_puppy_pin_interrupt_configure+0x20>
		inttype = 0;
1c0128c6:	4701                	li	a4,0
		sys_write32(sys_read32(config->base + GPIO_REG_INTTYPE_00_15) & ~(0x3 << (pin * 2)),
1c0128c8:	00179513          	slli	a0,a5,0x1
1c0128cc:	468d                	li	a3,3
1c0128ce:	00a696b3          	sll	a3,a3,a0
				    (inttype << (pin * 2)),
1c0128d2:	00a71733          	sll	a4,a4,a0
	if (pin < 16) {
1c0128d6:	453d                	li	a0,15
		sys_write32(sys_read32(config->base + GPIO_REG_INTEN) & ~BIT(pin),
1c0128d8:	4190                	lw	a2,0(a1)
		sys_write32(sys_read32(config->base + GPIO_REG_INTTYPE_00_15) & ~(0x3 << (pin * 2)),
1c0128da:	fff6c693          	not	a3,a3
	if (pin < 16) {
1c0128de:	02f56563          	bltu	a0,a5,1c012908 <gpio_puppy_pin_interrupt_configure+0x8a>
	return *(volatile uint32_t *)addr;
1c0128e2:	4e48                	lw	a0,28(a2)
		sys_write32(sys_read32(config->base + GPIO_REG_INTTYPE_00_15) & ~(0x3 << (pin * 2)),
1c0128e4:	8ee9                	and	a3,a3,a0
	*(volatile uint32_t *)addr = data;
1c0128e6:	ce54                	sw	a3,28(a2)
		sys_write32(sys_read32(config->base + GPIO_REG_INTTYPE_00_15) |
1c0128e8:	4190                	lw	a2,0(a1)
	return *(volatile uint32_t *)addr;
1c0128ea:	4e54                	lw	a3,28(a2)
1c0128ec:	8f55                	or	a4,a4,a3
	*(volatile uint32_t *)addr = data;
1c0128ee:	ce58                	sw	a4,28(a2)
	sys_write32(sys_read32(config->base + GPIO_REG_INTEN) | BIT(pin),
1c0128f0:	4194                	lw	a3,0(a1)
1c0128f2:	4705                	li	a4,1
1c0128f4:	00f717b3          	sll	a5,a4,a5
	return *(volatile uint32_t *)addr;
1c0128f8:	4e90                	lw	a2,24(a3)
1c0128fa:	8fd1                	or	a5,a5,a2
	*(volatile uint32_t *)addr = data;
1c0128fc:	ce9c                	sw	a5,24(a3)
	return 0;
1c0128fe:	bf79                	j	1c01289c <gpio_puppy_pin_interrupt_configure+0x1e>
	switch (trig) {
1c012900:	4705                	li	a4,1
1c012902:	b7d9                	j	1c0128c8 <gpio_puppy_pin_interrupt_configure+0x4a>
		inttype = 2;
1c012904:	4709                	li	a4,2
1c012906:	b7c9                	j	1c0128c8 <gpio_puppy_pin_interrupt_configure+0x4a>
	return *(volatile uint32_t *)addr;
1c012908:	5208                	lw	a0,32(a2)
		sys_write32(sys_read32(config->base + GPIO_REG_INTTYPE_16_31) & ~(0x3 << (pin * 2)),
1c01290a:	8ee9                	and	a3,a3,a0
	*(volatile uint32_t *)addr = data;
1c01290c:	d214                	sw	a3,32(a2)
		sys_write32(sys_read32(config->base + GPIO_REG_INTTYPE_16_31) |
1c01290e:	4190                	lw	a2,0(a1)
	return *(volatile uint32_t *)addr;
1c012910:	5214                	lw	a3,32(a2)
1c012912:	8f55                	or	a4,a4,a3
	*(volatile uint32_t *)addr = data;
1c012914:	d218                	sw	a4,32(a2)
}
1c012916:	bfe9                	j	1c0128f0 <gpio_puppy_pin_interrupt_configure+0x72>

1c012918 <gpio_puppy_0_init>:
                                                                                                   \
	DEVICE_DT_INST_DEFINE(idx, gpio_puppy_##idx##_init, NULL, &gpio_puppy_##idx##_data,        \
			      &gpio_puppy_##idx##_config, PRE_KERNEL_1, CONFIG_GPIO_INIT_PRIORITY, \
			      &gpio_puppy_driver_api);

DT_INST_FOREACH_STATUS_OKAY(GPIO_PUPPY_INIT)
1c012918:	1141                	addi	sp,sp,-16
1c01291a:	453d                	li	a0,15
1c01291c:	c606                	sw	ra,12(sp)
1c01291e:	d9dfe0ef          	jal	ra,1c0116ba <arch_irq_enable>
1c012922:	40b2                	lw	ra,12(sp)
1c012924:	4501                	li	a0,0
1c012926:	0141                	addi	sp,sp,16
1c012928:	8082                	ret

1c01292a <gpio_puppy_isr>:
{
1c01292a:	1141                	addi	sp,sp,-16
1c01292c:	c606                	sw	ra,12(sp)
1c01292e:	c422                	sw	s0,8(sp)
1c012930:	c226                	sw	s1,4(sp)
1c012932:	c04a                	sw	s2,0(sp)
	uint32_t int_status = sys_read32(config->base + GPIO_REG_INTSTATUS);
1c012934:	415c                	lw	a5,4(a0)
1c012936:	439c                	lw	a5,0(a5)
	return *(volatile uint32_t *)addr;
1c012938:	0247a903          	lw	s2,36(a5)
	gpio_fire_callbacks(&data->callbacks, dev, int_status);
1c01293c:	491c                	lw	a5,16(a0)
1c01293e:	438c                	lw	a1,0(a5)
{
	struct gpio_callback *cb, *tmp;

	sys_port_trace_gpio_fire_callbacks_enter(list, port, pins);

	SYS_SLIST_FOR_EACH_CONTAINER_SAFE(list, cb, tmp, node) {
1c012940:	c581                	beqz	a1,1c012948 <gpio_puppy_isr+0x1e>
 */
#define SYS_SLIST_STATIC_INIT(ptr_to_list) {NULL, NULL}

static inline sys_snode_t *z_snode_next_peek(const sys_snode_t *node)
{
	return node->next;
1c012942:	4184                	lw	s1,0(a1)
1c012944:	842a                	mv	s0,a0
1c012946:	e599                	bnez	a1,1c012954 <gpio_puppy_isr+0x2a>
}
1c012948:	40b2                	lw	ra,12(sp)
1c01294a:	4422                	lw	s0,8(sp)
1c01294c:	4492                	lw	s1,4(sp)
1c01294e:	4902                	lw	s2,0(sp)
1c012950:	0141                	addi	sp,sp,16
1c012952:	8082                	ret
		if (cb->pin_mask & pins) {
1c012954:	4590                	lw	a2,8(a1)
1c012956:	00c97633          	and	a2,s2,a2
1c01295a:	c601                	beqz	a2,1c012962 <gpio_puppy_isr+0x38>
			__ASSERT(cb->handler, "No callback handler!");

			cb->handler(port, cb, cb->pin_mask & pins);
1c01295c:	41dc                	lw	a5,4(a1)
1c01295e:	8522                	mv	a0,s0
1c012960:	9782                	jalr	a5
	SYS_SLIST_FOR_EACH_CONTAINER_SAFE(list, cb, tmp, node) {
1c012962:	4781                	li	a5,0
1c012964:	c091                	beqz	s1,1c012968 <gpio_puppy_isr+0x3e>
1c012966:	409c                	lw	a5,0(s1)
1c012968:	85a6                	mv	a1,s1
1c01296a:	84be                	mv	s1,a5
1c01296c:	bfe9                	j	1c012946 <gpio_puppy_isr+0x1c>

1c01296e <gpio_puppy_manage_callback>:
	struct gpio_puppy_data *data = dev->data;
1c01296e:	491c                	lw	a5,16(a0)
 *
 * @return A pointer on the first node of the list (or NULL if none)
 */
static inline sys_snode_t *sys_slist_peek_head(const sys_slist_t *list)
{
	return list->head;
1c012970:	4398                	lw	a4,0(a5)
	if (!sys_slist_is_empty(callbacks)) {
1c012972:	cb19                	beqz	a4,1c012988 <gpio_puppy_manage_callback+0x1a>
static inline size_t sys_slist_len(const sys_slist_t *list);

Z_GENLIST_LEN(slist, snode)

/** @} */
Z_GENLIST_FIND_AND_REMOVE(slist, snode)
1c012974:	02b71363          	bne	a4,a1,1c01299a <gpio_puppy_manage_callback+0x2c>
	return node->next;
1c012978:	4198                	lw	a4,0(a1)
Z_GENLIST_REMOVE(slist, snode)
1c01297a:	43d4                	lw	a3,4(a5)
	list->head = node;
1c01297c:	c398                	sw	a4,0(a5)
Z_GENLIST_REMOVE(slist, snode)
1c01297e:	00d59363          	bne	a1,a3,1c012984 <gpio_puppy_manage_callback+0x16>
	list->tail = node;
1c012982:	c3d8                	sw	a4,4(a5)
	parent->next = child;
1c012984:	0005a023          	sw	zero,0(a1) # ff0000 <CONFIG_FLASH_LOAD_SIZE+0xfb0000>
	if (set) {
1c012988:	c619                	beqz	a2,1c012996 <gpio_puppy_manage_callback+0x28>
	return list->head;
1c01298a:	4398                	lw	a4,0(a5)
	parent->next = child;
1c01298c:	c198                	sw	a4,0(a1)
Z_GENLIST_PREPEND(slist, snode)
1c01298e:	43d8                	lw	a4,4(a5)
	list->head = node;
1c012990:	c38c                	sw	a1,0(a5)
Z_GENLIST_PREPEND(slist, snode)
1c012992:	e311                	bnez	a4,1c012996 <gpio_puppy_manage_callback+0x28>
	list->tail = node;
1c012994:	c3cc                	sw	a1,4(a5)
}
1c012996:	4501                	li	a0,0
1c012998:	8082                	ret
	return node->next;
1c01299a:	86ba                	mv	a3,a4
1c01299c:	4318                	lw	a4,0(a4)
Z_GENLIST_FIND_AND_REMOVE(slist, snode)
1c01299e:	d76d                	beqz	a4,1c012988 <gpio_puppy_manage_callback+0x1a>
1c0129a0:	fee59de3          	bne	a1,a4,1c01299a <gpio_puppy_manage_callback+0x2c>
	return node->next;
1c0129a4:	4198                	lw	a4,0(a1)
	parent->next = child;
1c0129a6:	c298                	sw	a4,0(a3)
Z_GENLIST_REMOVE(slist, snode)
1c0129a8:	43d8                	lw	a4,4(a5)
1c0129aa:	fce59de3          	bne	a1,a4,1c012984 <gpio_puppy_manage_callback+0x16>
	list->tail = node;
1c0129ae:	c3d4                	sw	a3,4(a5)
}
1c0129b0:	bfd1                	j	1c012984 <gpio_puppy_manage_callback+0x16>

1c0129b2 <i2c_puppy_configure>:
		return -EINVAL;
	}

	config = dev->config;

	if (config == NULL) {
1c0129b2:	415c                	lw	a5,4(a0)
1c0129b4:	cf8d                	beqz	a5,1c0129ee <i2c_puppy_configure+0x3c>
		return -EINVAL;
	}

	/* Configure bus frequency */
	switch (I2C_SPEED_GET(dev_config)) {
1c0129b6:	0015d793          	srli	a5,a1,0x1
1c0129ba:	8b9d                	andi	a5,a5,7
1c0129bc:	4705                	li	a4,1
1c0129be:	02e78163          	beq	a5,a4,1c0129e0 <i2c_puppy_configure+0x2e>
1c0129c2:	4709                	li	a4,2
1c0129c4:	00e79b63          	bne	a5,a4,1c0129da <i2c_puppy_configure+0x28>
1c0129c8:	03200793          	li	a5,50
	struct i2c_puppy_data *data = dev->data;
1c0129cc:	4918                	lw	a4,16(a0)
	return (div >> 2);
1c0129ce:	8389                	srli	a5,a5,0x2
	case I2C_SPEED_ULTRA:
	default:
		return -ENOTSUP;
	}

	data->clock_div = i2c_puppy_get_div(i2c_speed);
1c0129d0:	00f71023          	sh	a5,0(a4) # 2000000 <CONFIG_SYS_CLOCK_HW_CYCLES_PER_SEC+0xced300>

	/* Support I2C Master mode only */
	if (!(dev_config & I2C_MODE_CONTROLLER)) {
1c0129d4:	0105f793          	andi	a5,a1,16
1c0129d8:	e799                	bnez	a5,1c0129e6 <i2c_puppy_configure+0x34>
		return -ENOTSUP;
1c0129da:	f7a00513          	li	a0,-134
1c0129de:	8082                	ret
	uint16_t div = (sys_clock_hw_cycles_per_sec() + bus_freq - 1) / bus_freq;
1c0129e0:	0c800793          	li	a5,200
1c0129e4:	b7e5                	j	1c0129cc <i2c_puppy_configure+0x1a>
	}

	/*
	 * Puppy I2C controller does not support 10-bit addresses.
	 */
	if (dev_config & I2C_ADDR_10_BITS) {
1c0129e6:	8985                	andi	a1,a1,1
1c0129e8:	f9ed                	bnez	a1,1c0129da <i2c_puppy_configure+0x28>
		return -ENOTSUP;
	}

	return 0;
1c0129ea:	4501                	li	a0,0
1c0129ec:	8082                	ret
		return -EINVAL;
1c0129ee:	5529                	li	a0,-22
}
1c0129f0:	8082                	ret

1c0129f2 <config_pad_cfg.constprop.0>:
static inline void config_pad_cfg(int pad, int cfg)
{
	uint32_t padfunId = pad >> 2;          // pad register id
	uint32_t padfunBit = (pad & 0x3) << 3; // pad bit offset

	uint32_t val = sys_read32(PULP_PADCFG_BASE + padfunId * 0x4) & ~(0xff << padfunBit);
1c0129f2:	06841737          	lui	a4,0x6841
1c0129f6:	0721                	addi	a4,a4,8 # 6841008 <CONFIG_SYS_CLOCK_HW_CYCLES_PER_SEC+0x552e308>
	uint32_t padfunId = pad >> 2;          // pad register id
1c0129f8:	40255793          	srai	a5,a0,0x2
	uint32_t val = sys_read32(PULP_PADCFG_BASE + padfunId * 0x4) & ~(0xff << padfunBit);
1c0129fc:	97ba                	add	a5,a5,a4
1c0129fe:	078a                	slli	a5,a5,0x2
	uint32_t padfunBit = (pad & 0x3) << 3; // pad bit offset
1c012a00:	00351613          	slli	a2,a0,0x3
1c012a04:	4394                	lw	a3,0(a5)
1c012a06:	8a61                	andi	a2,a2,24
	uint32_t val = sys_read32(PULP_PADCFG_BASE + padfunId * 0x4) & ~(0xff << padfunBit);
1c012a08:	0ff00713          	li	a4,255
1c012a0c:	00c71733          	sll	a4,a4,a2
1c012a10:	fff74713          	not	a4,a4
1c012a14:	8f75                	and	a4,a4,a3
	val |= (cfg & 0xff) << padfunBit;
1c012a16:	0fe00693          	li	a3,254
1c012a1a:	00c696b3          	sll	a3,a3,a2
1c012a1e:	8f55                	or	a4,a4,a3
	*(volatile uint32_t *)addr = data;
1c012a20:	c398                	sw	a4,0(a5)
	sys_write32(val, PULP_PADCFG_BASE + padfunId * 0x4);
}
1c012a22:	8082                	ret

1c012a24 <config_pad_func.constprop.0>:
	uint32_t val = sys_read32(PULP_PAD_BASE + padfunId * 0x4) & ~(0x3 << padfunBit);
1c012a24:	06841737          	lui	a4,0x6841
1c012a28:	0711                	addi	a4,a4,4 # 6841004 <CONFIG_SYS_CLOCK_HW_CYCLES_PER_SEC+0x552e304>
	uint32_t padfunId = pad >> 4;          // pad register id
1c012a2a:	40455793          	srai	a5,a0,0x4
	uint32_t val = sys_read32(PULP_PAD_BASE + padfunId * 0x4) & ~(0x3 << padfunBit);
1c012a2e:	97ba                	add	a5,a5,a4
1c012a30:	078a                	slli	a5,a5,0x2
	uint32_t padfunBit = (pad & 0xf) << 1; // pad bit offset
1c012a32:	00151613          	slli	a2,a0,0x1
	return *(volatile uint32_t *)addr;
1c012a36:	4394                	lw	a3,0(a5)
1c012a38:	8a79                	andi	a2,a2,30
	uint32_t val = sys_read32(PULP_PAD_BASE + padfunId * 0x4) & ~(0x3 << padfunBit);
1c012a3a:	470d                	li	a4,3
1c012a3c:	00c71733          	sll	a4,a4,a2
1c012a40:	fff74713          	not	a4,a4
1c012a44:	8f75                	and	a4,a4,a3
	val |= (func & 0x3) << padfunBit;
1c012a46:	4689                	li	a3,2
1c012a48:	00c696b3          	sll	a3,a3,a2
1c012a4c:	8f55                	or	a4,a4,a3
	*(volatile uint32_t *)addr = data;
1c012a4e:	c398                	sw	a4,0(a5)
}
1c012a50:	8082                	ret

1c012a52 <k_usleep.isra.0>:
	return z_impl_k_usleep(us);
1c012a52:	4980106f          	j	1c013eea <z_impl_k_usleep>

1c012a56 <i2c_puppy_send_addr.isra.0>:
static int i2c_puppy_send_addr(const struct device *dev, uint16_t addr, uint16_t rw_flag)
1c012a56:	7159                	addi	sp,sp,-112
1c012a58:	d686                	sw	ra,108(sp)
1c012a5a:	d4a2                	sw	s0,104(sp)
1c012a5c:	d2a6                	sw	s1,100(sp)
1c012a5e:	d0ca                	sw	s2,96(sp)
1c012a60:	cece                	sw	s3,92(sp)
	struct i2c_puppy_data *data = dev->data;
1c012a62:	491c                	lw	a5,16(a0)
	uint32_t base = config->base;
1c012a64:	4158                	lw	a4,4(a0)
	uint8_t i2c_data = (addr << 1) | rw_flag;
1c012a66:	0586                	slli	a1,a1,0x1
	cmd_buf[index++] = I2C_CMD_CFG | data->clock_div;
1c012a68:	0007d783          	lhu	a5,0(a5)
	uint32_t base = config->base;
1c012a6c:	4340                	lw	s0,4(a4)
	cmd_buf[index++] = I2C_CMD_CFG | data->clock_div;
1c012a6e:	e0000737          	lui	a4,0xe0000
1c012a72:	8fd9                	or	a5,a5,a4
1c012a74:	c83e                	sw	a5,16(sp)
	cmd_buf[index++] = I2C_CMD_WR;
1c012a76:	800007b7          	lui	a5,0x80000
	uint8_t i2c_data = (addr << 1) | rw_flag;
1c012a7a:	8dd1                	or	a1,a1,a2
	cmd_buf[index++] = I2C_CMD_WR;
1c012a7c:	cc3e                	sw	a5,24(sp)
	cmd_buf[index++] = I2C_CMD_EOT;
1c012a7e:	900007b7          	lui	a5,0x90000
	uint8_t i2c_data = (addr << 1) | rw_flag;
1c012a82:	00b107a3          	sb	a1,15(sp)
	cmd_buf[index++] = I2C_CMD_START;
1c012a86:	ca02                	sw	zero,20(sp)
	cmd_buf[index++] = I2C_CMD_EOT;
1c012a88:	ce3e                	sw	a5,28(sp)
	return *(volatile uint32_t *)addr;
1c012a8a:	4c1c                	lw	a5,24(s0)
	\param   channelOffset   Offset of the channel
	\return         1 if another transfer can be enqueued, 0 otherwise
	*/
static inline uint32_t plp_udma_canEnqueue(uint32_t channelBase)
{
	return !(sys_read32(channelBase + UDMA_CHANNEL_CFG_OFFSET) & UDMA_CHANNEL_CFG_SHADOW);
1c012a8c:	01840993          	addi	s3,s0,24
1c012a90:	0207f793          	andi	a5,a5,32
	while (!plp_udma_canEnqueue(base + UDMA_CHANNEL_TX_OFFSET))
1c012a94:	fbfd                	bnez	a5,1c012a8a <i2c_puppy_send_addr.isra.0+0x34>
	k_usleep(100);
1c012a96:	06400513          	li	a0,100
1c012a9a:	3f65                	jal	1c012a52 <k_usleep.isra.0>
	plp_udma_enqueue(base + UDMA_CHANNEL_CMD_OFFSET, (uint32_t)cmd_buf, index * 4,
1c012a9c:	081c                	addi	a5,sp,16
	*(volatile uint32_t *)addr = data;
1c012a9e:	d01c                	sw	a5,32(s0)
1c012aa0:	44c1                	li	s1,16
1c012aa2:	47d1                	li	a5,20
1c012aa4:	d044                	sw	s1,36(s0)
1c012aa6:	d41c                	sw	a5,40(s0)
	k_usleep(50);
1c012aa8:	03200513          	li	a0,50
1c012aac:	375d                	jal	1c012a52 <k_usleep.isra.0>
	plp_udma_enqueue(base + UDMA_CHANNEL_TX_OFFSET, (uint32_t)&i2c_data, 1,
1c012aae:	00f10793          	addi	a5,sp,15
1c012ab2:	c81c                	sw	a5,16(s0)
1c012ab4:	4785                	li	a5,1
1c012ab6:	c85c                	sw	a5,20(s0)
static inline void plp_udma_enqueue(unsigned channelBase, uint32_t l2Addr, unsigned int size,
				    unsigned int cfg)
{
	sys_write32(l2Addr, channelBase + UDMA_CHANNEL_SADDR_OFFSET);
	sys_write32(size, channelBase + UDMA_CHANNEL_SIZE_OFFSET);
	sys_write32(cfg | UDMA_CHANNEL_CFG_EN, channelBase + UDMA_CHANNEL_CFG_OFFSET);
1c012ab8:	02840913          	addi	s2,s0,40
1c012abc:	cc04                	sw	s1,24(s0)
	return *(volatile uint32_t *)addr;
1c012abe:	0009a783          	lw	a5,0(s3)
	\param   channelOffset Offset of the channel
	\return  1 if the channel is busy, 0 otherwise
	*/
static inline uint32_t plp_udma_busy(unsigned channelOffset)
{
	return (sys_read32(channelOffset + UDMA_CHANNEL_CFG_OFFSET) & UDMA_CHANNEL_CFG_EN);
1c012ac2:	8bc1                	andi	a5,a5,16
	while (plp_udma_busy(base + UDMA_CHANNEL_TX_OFFSET) ||
1c012ac4:	ffed                	bnez	a5,1c012abe <i2c_puppy_send_addr.isra.0+0x68>
1c012ac6:	00092783          	lw	a5,0(s2)
1c012aca:	8bc1                	andi	a5,a5,16
1c012acc:	fbed                	bnez	a5,1c012abe <i2c_puppy_send_addr.isra.0+0x68>
}
1c012ace:	50b6                	lw	ra,108(sp)
1c012ad0:	5426                	lw	s0,104(sp)
1c012ad2:	5496                	lw	s1,100(sp)
1c012ad4:	5906                	lw	s2,96(sp)
1c012ad6:	49f6                	lw	s3,92(sp)
1c012ad8:	6165                	addi	sp,sp,112
1c012ada:	8082                	ret

1c012adc <i2c_puppy_transfer>:

static int i2c_puppy_transfer(const struct device *dev, struct i2c_msg *msgs, uint8_t num_msgs,
			      uint16_t addr)
{
1c012adc:	7175                	addi	sp,sp,-144
1c012ade:	c706                	sw	ra,140(sp)
1c012ae0:	c522                	sw	s0,136(sp)
1c012ae2:	c326                	sw	s1,132(sp)
1c012ae4:	c14a                	sw	s2,128(sp)
1c012ae6:	dece                	sw	s3,124(sp)
1c012ae8:	dcd2                	sw	s4,120(sp)
1c012aea:	dad6                	sw	s5,116(sp)
1c012aec:	d8da                	sw	s6,112(sp)
1c012aee:	d6de                	sw	s7,108(sp)
1c012af0:	d4e2                	sw	s8,104(sp)
1c012af2:	d2e6                	sw	s9,100(sp)
1c012af4:	d0ea                	sw	s10,96(sp)
1c012af6:	ceee                	sw	s11,92(sp)
1c012af8:	c236                	sw	a3,4(sp)
	int ret = 0;

	/* Check for NULL pointers */
	if (dev == NULL) {
1c012afa:	1a050763          	beqz	a0,1c012ca8 <i2c_puppy_transfer+0x1cc>
		return -EINVAL;
	}

	if (dev->config == NULL) {
1c012afe:	4158                	lw	a4,4(a0)
1c012b00:	84aa                	mv	s1,a0
		return -EINVAL;
1c012b02:	5529                	li	a0,-22
	if (dev->config == NULL) {
1c012b04:	c31d                	beqz	a4,1c012b2a <i2c_puppy_transfer+0x4e>
		return -EINVAL;
	}

	if (msgs == NULL) {
1c012b06:	c195                	beqz	a1,1c012b2a <i2c_puppy_transfer+0x4e>
1c012b08:	89b2                	mv	s3,a2
1c012b0a:	892e                	mv	s2,a1
		return -EINVAL;
	}

	for (int i = 0; i < num_msgs; i++) {
1c012b0c:	4a01                	li	s4,0
	cmd_buf[index] = I2C_CMD_CFG | data->clock_div;
1c012b0e:	e0000cb7          	lui	s9,0xe0000
	if (msg->len > 1) {
1c012b12:	4a85                	li	s5,1
	cmd_buf[index++] = I2C_CMD_WR;
1c012b14:	80000d37          	lui	s10,0x80000
	cmd_buf[index++] = I2C_CMD_EOT;
1c012b18:	90000db7          	lui	s11,0x90000
	*(volatile uint32_t *)addr = data;
1c012b1c:	4b51                	li	s6,20
1c012b1e:	4bc1                	li	s7,16
		cmd_buf[index++] = I2C_CMD_STOP;
1c012b20:	20000c37          	lui	s8,0x20000
	for (int i = 0; i < num_msgs; i++) {
1c012b24:	033a4263          	blt	s4,s3,1c012b48 <i2c_puppy_transfer+0x6c>
1c012b28:	4501                	li	a0,0
			return ret;
		}
	}

	return 0;
}
1c012b2a:	40ba                	lw	ra,140(sp)
1c012b2c:	442a                	lw	s0,136(sp)
1c012b2e:	449a                	lw	s1,132(sp)
1c012b30:	490a                	lw	s2,128(sp)
1c012b32:	59f6                	lw	s3,124(sp)
1c012b34:	5a66                	lw	s4,120(sp)
1c012b36:	5ad6                	lw	s5,116(sp)
1c012b38:	5b46                	lw	s6,112(sp)
1c012b3a:	5bb6                	lw	s7,108(sp)
1c012b3c:	5c26                	lw	s8,104(sp)
1c012b3e:	5c96                	lw	s9,100(sp)
1c012b40:	5d06                	lw	s10,96(sp)
1c012b42:	4df6                	lw	s11,92(sp)
1c012b44:	6149                	addi	sp,sp,144
1c012b46:	8082                	ret
	uint32_t base = config->base;
1c012b48:	40d8                	lw	a4,4(s1)
1c012b4a:	4340                	lw	s0,4(a4)
		if (msgs[i].flags & I2C_MSG_READ) {
1c012b4c:	00894703          	lbu	a4,8(s2)
1c012b50:	8b05                	andi	a4,a4,1
1c012b52:	c75d                	beqz	a4,1c012c00 <i2c_puppy_transfer+0x124>
	i2c_puppy_send_addr(dev, addr, I2C_R_FLAG);
1c012b54:	4592                	lw	a1,4(sp)
1c012b56:	4605                	li	a2,1
1c012b58:	8526                	mv	a0,s1
1c012b5a:	3df5                	jal	1c012a56 <i2c_puppy_send_addr.isra.0>
	if (msg->len > 1) {
1c012b5c:	00492703          	lw	a4,4(s2)
	uint32_t index = 0;
1c012b60:	4681                	li	a3,0
	if (msg->len > 1) {
1c012b62:	00eafb63          	bgeu	s5,a4,1c012b78 <i2c_puppy_transfer+0x9c>
		cmd_buf[index++] = I2C_CMD_RPT | (msg->len - 1);
1c012b66:	c00006b7          	lui	a3,0xc0000
1c012b6a:	177d                	addi	a4,a4,-1 # dfffffff <CONFIG_COMMON_LIBC_MALLOC_ARENA_SIZE+0xe0000000>
1c012b6c:	8f55                	or	a4,a4,a3
1c012b6e:	c83a                	sw	a4,16(sp)
		cmd_buf[index++] = I2C_CMD_RD_ACK;
1c012b70:	40000737          	lui	a4,0x40000
1c012b74:	ca3a                	sw	a4,20(sp)
1c012b76:	4689                	li	a3,2
	cmd_buf[index++] = I2C_CMD_RD_NACK;
1c012b78:	00269613          	slli	a2,a3,0x2
1c012b7c:	04060793          	addi	a5,a2,64 # 10040 <CONFIG_SPI_NOR_FLASH_LAYOUT_PAGE_SIZE+0x40>
1c012b80:	0810                	addi	a2,sp,16
1c012b82:	963e                	add	a2,a2,a5
1c012b84:	600005b7          	lui	a1,0x60000
1c012b88:	fcb62023          	sw	a1,-64(a2)
	if (msg->flags & I2C_MSG_STOP) {
1c012b8c:	00894603          	lbu	a2,8(s2)
	cmd_buf[index++] = I2C_CMD_RD_NACK;
1c012b90:	00168713          	addi	a4,a3,1 # c0000001 <CONFIG_COMMON_LIBC_MALLOC_ARENA_SIZE+0xc0000002>
	if (msg->flags & I2C_MSG_STOP) {
1c012b94:	8a09                	andi	a2,a2,2
1c012b96:	ca11                	beqz	a2,1c012baa <i2c_puppy_transfer+0xce>
		cmd_buf[index++] = I2C_CMD_STOP;
1c012b98:	070a                	slli	a4,a4,0x2
1c012b9a:	04070793          	addi	a5,a4,64 # 40000040 <__kernel_ram_end+0x23fe8d50>
1c012b9e:	0818                	addi	a4,sp,16
1c012ba0:	973e                	add	a4,a4,a5
1c012ba2:	fd872023          	sw	s8,-64(a4)
1c012ba6:	00268713          	addi	a4,a3,2
	return *(volatile uint32_t *)addr;
1c012baa:	4414                	lw	a3,8(s0)
	return !(sys_read32(channelBase + UDMA_CHANNEL_CFG_OFFSET) & UDMA_CHANNEL_CFG_SHADOW);
1c012bac:	00840613          	addi	a2,s0,8
1c012bb0:	0206f693          	andi	a3,a3,32
	while (!plp_udma_canEnqueue(base + UDMA_CHANNEL_RX_OFFSET))
1c012bb4:	fafd                	bnez	a3,1c012baa <i2c_puppy_transfer+0xce>
	k_usleep(50);
1c012bb6:	03200513          	li	a0,50
1c012bba:	c632                	sw	a2,12(sp)
1c012bbc:	c43a                	sw	a4,8(sp)
1c012bbe:	3d51                	jal	1c012a52 <k_usleep.isra.0>
	plp_udma_enqueue(base + UDMA_CHANNEL_CMD_OFFSET, (uint32_t)cmd_buf, index * 4,
1c012bc0:	4722                	lw	a4,8(sp)
	*(volatile uint32_t *)addr = data;
1c012bc2:	081c                	addi	a5,sp,16
1c012bc4:	d01c                	sw	a5,32(s0)
1c012bc6:	070a                	slli	a4,a4,0x2
1c012bc8:	d058                	sw	a4,36(s0)
	sys_write32(cfg | UDMA_CHANNEL_CFG_EN, channelBase + UDMA_CHANNEL_CFG_OFFSET);
1c012bca:	02840693          	addi	a3,s0,40
1c012bce:	03642423          	sw	s6,40(s0)
	k_usleep(50);
1c012bd2:	03200513          	li	a0,50
1c012bd6:	c436                	sw	a3,8(sp)
1c012bd8:	3dad                	jal	1c012a52 <k_usleep.isra.0>
	plp_udma_enqueue(base + UDMA_CHANNEL_RX_OFFSET, (uint32_t)msg->buf, msg->len,
1c012bda:	00092583          	lw	a1,0(s2)
1c012bde:	00492703          	lw	a4,4(s2)
1c012be2:	4632                	lw	a2,12(sp)
1c012be4:	c00c                	sw	a1,0(s0)
1c012be6:	46a2                	lw	a3,8(sp)
1c012be8:	c058                	sw	a4,4(s0)
1c012bea:	01742423          	sw	s7,8(s0)
	return *(volatile uint32_t *)addr;
1c012bee:	4218                	lw	a4,0(a2)
	return (sys_read32(channelOffset + UDMA_CHANNEL_CFG_OFFSET) & UDMA_CHANNEL_CFG_EN);
1c012bf0:	8b41                	andi	a4,a4,16
	while (plp_udma_busy(base + UDMA_CHANNEL_RX_OFFSET) ||
1c012bf2:	ff75                	bnez	a4,1c012bee <i2c_puppy_transfer+0x112>
1c012bf4:	4298                	lw	a4,0(a3)
1c012bf6:	8b41                	andi	a4,a4,16
1c012bf8:	fb7d                	bnez	a4,1c012bee <i2c_puppy_transfer+0x112>
	for (int i = 0; i < num_msgs; i++) {
1c012bfa:	0a05                	addi	s4,s4,1
1c012bfc:	0931                	addi	s2,s2,12
1c012bfe:	b71d                	j	1c012b24 <i2c_puppy_transfer+0x48>
	struct i2c_puppy_data *data = dev->data;
1c012c00:	4898                	lw	a4,16(s1)
	i2c_puppy_send_addr(dev, addr, I2C_W_FLAG);
1c012c02:	4592                	lw	a1,4(sp)
1c012c04:	4601                	li	a2,0
1c012c06:	8526                	mv	a0,s1
	struct i2c_puppy_data *data = dev->data;
1c012c08:	c43a                	sw	a4,8(sp)
	i2c_puppy_send_addr(dev, addr, I2C_W_FLAG);
1c012c0a:	35b1                	jal	1c012a56 <i2c_puppy_send_addr.isra.0>
	cmd_buf[index] = I2C_CMD_CFG | data->clock_div;
1c012c0c:	4722                	lw	a4,8(sp)
	int index = 0;
1c012c0e:	4681                	li	a3,0
	cmd_buf[index] = I2C_CMD_CFG | data->clock_div;
1c012c10:	00075703          	lhu	a4,0(a4)
1c012c14:	01976733          	or	a4,a4,s9
1c012c18:	c83a                	sw	a4,16(sp)
	if (msg->len > 1) {
1c012c1a:	00492703          	lw	a4,4(s2)
1c012c1e:	00eaf763          	bgeu	s5,a4,1c012c2c <i2c_puppy_transfer+0x150>
		cmd_buf[index++] = I2C_CMD_RPT | msg->len;
1c012c22:	c00006b7          	lui	a3,0xc0000
1c012c26:	8f55                	or	a4,a4,a3
1c012c28:	c83a                	sw	a4,16(sp)
1c012c2a:	4685                	li	a3,1
	cmd_buf[index++] = I2C_CMD_WR;
1c012c2c:	00269613          	slli	a2,a3,0x2
1c012c30:	04060793          	addi	a5,a2,64
1c012c34:	0810                	addi	a2,sp,16
1c012c36:	963e                	add	a2,a2,a5
1c012c38:	fda62023          	sw	s10,-64(a2)
	if (msg->flags & I2C_MSG_STOP) {
1c012c3c:	00894603          	lbu	a2,8(s2)
	cmd_buf[index++] = I2C_CMD_WR;
1c012c40:	00168713          	addi	a4,a3,1 # c0000001 <CONFIG_COMMON_LIBC_MALLOC_ARENA_SIZE+0xc0000002>
	if (msg->flags & I2C_MSG_STOP) {
1c012c44:	8a09                	andi	a2,a2,2
1c012c46:	ca11                	beqz	a2,1c012c5a <i2c_puppy_transfer+0x17e>
		cmd_buf[index++] = I2C_CMD_STOP;
1c012c48:	070a                	slli	a4,a4,0x2
1c012c4a:	04070793          	addi	a5,a4,64
1c012c4e:	0818                	addi	a4,sp,16
1c012c50:	973e                	add	a4,a4,a5
1c012c52:	fd872023          	sw	s8,-64(a4)
1c012c56:	00268713          	addi	a4,a3,2
	cmd_buf[index++] = I2C_CMD_EOT;
1c012c5a:	00271693          	slli	a3,a4,0x2
1c012c5e:	04068793          	addi	a5,a3,64
1c012c62:	0814                	addi	a3,sp,16
1c012c64:	96be                	add	a3,a3,a5
1c012c66:	fdb6a023          	sw	s11,-64(a3)
	*(volatile uint32_t *)addr = data;
1c012c6a:	081c                	addi	a5,sp,16
1c012c6c:	0705                	addi	a4,a4,1
	plp_udma_enqueue(base + UDMA_CHANNEL_CMD_OFFSET, (uint32_t)cmd_buf, index * 4,
1c012c6e:	070a                	slli	a4,a4,0x2
1c012c70:	d01c                	sw	a5,32(s0)
1c012c72:	d058                	sw	a4,36(s0)
	sys_write32(cfg | UDMA_CHANNEL_CFG_EN, channelBase + UDMA_CHANNEL_CFG_OFFSET);
1c012c74:	02840693          	addi	a3,s0,40
1c012c78:	03642423          	sw	s6,40(s0)
	k_usleep(50);
1c012c7c:	03200513          	li	a0,50
1c012c80:	c436                	sw	a3,8(sp)
1c012c82:	3bc1                	jal	1c012a52 <k_usleep.isra.0>
	plp_udma_enqueue(base + UDMA_CHANNEL_TX_OFFSET, (uint32_t)msg->buf, msg->len,
1c012c84:	00092603          	lw	a2,0(s2)
1c012c88:	00492703          	lw	a4,4(s2)
1c012c8c:	46a2                	lw	a3,8(sp)
1c012c8e:	c810                	sw	a2,16(s0)
1c012c90:	c858                	sw	a4,20(s0)
1c012c92:	01840613          	addi	a2,s0,24
1c012c96:	01742c23          	sw	s7,24(s0)
	return *(volatile uint32_t *)addr;
1c012c9a:	4218                	lw	a4,0(a2)
	return (sys_read32(channelOffset + UDMA_CHANNEL_CFG_OFFSET) & UDMA_CHANNEL_CFG_EN);
1c012c9c:	8b41                	andi	a4,a4,16
	while (plp_udma_busy(base + UDMA_CHANNEL_TX_OFFSET) ||
1c012c9e:	ff75                	bnez	a4,1c012c9a <i2c_puppy_transfer+0x1be>
1c012ca0:	4298                	lw	a4,0(a3)
1c012ca2:	8b41                	andi	a4,a4,16
1c012ca4:	fb7d                	bnez	a4,1c012c9a <i2c_puppy_transfer+0x1be>
1c012ca6:	bf91                	j	1c012bfa <i2c_puppy_transfer+0x11e>
		return -EINVAL;
1c012ca8:	5529                	li	a0,-22
1c012caa:	b541                	j	1c012b2a <i2c_puppy_transfer+0x4e>

1c012cac <i2c_puppy_init>:

static int i2c_puppy_init(const struct device *dev)
{
1c012cac:	1141                	addi	sp,sp,-16
1c012cae:	c606                	sw	ra,12(sp)
1c012cb0:	c422                	sw	s0,8(sp)
	const struct i2c_puppy_config *config = dev->config;
1c012cb2:	4140                	lw	s0,4(a0)
1c012cb4:	1a1026b7          	lui	a3,0x1a102
1c012cb8:	428c                	lw	a1,0(a3)
	struct i2c_puppy_data *data = dev->data;

	uint32_t udma_cg = plp_udma_cg_get();
	plp_udma_cg_set(udma_cg | BIT(UDMA_I2C0_ID + config->id));
1c012cba:	4018                	lw	a4,0(s0)
1c012cbc:	4785                	li	a5,1
	struct i2c_puppy_data *data = dev->data;
1c012cbe:	4910                	lw	a2,16(a0)
	plp_udma_cg_set(udma_cg | BIT(UDMA_I2C0_ID + config->id));
1c012cc0:	070d                	addi	a4,a4,3
1c012cc2:	00e797b3          	sll	a5,a5,a4
1c012cc6:	8fcd                	or	a5,a5,a1
	*(volatile uint32_t *)addr = data;
1c012cc8:	c29c                	sw	a5,0(a3)

	data->clock_div = i2c_puppy_get_div(config->bus_freq);
1c012cca:	4418                	lw	a4,8(s0)
	uint16_t div = (sys_clock_hw_cycles_per_sec() + bus_freq - 1) / bus_freq;
1c012ccc:	013137b7          	lui	a5,0x1313
1c012cd0:	cff78793          	addi	a5,a5,-769 # 1312cff <CONFIG_FLASH_LOAD_SIZE+0x12d2cff>
1c012cd4:	97ba                	add	a5,a5,a4
1c012cd6:	02e7d7b3          	divu	a5,a5,a4
1c012cda:	01079713          	slli	a4,a5,0x10
	if (div & 1) {
1c012cde:	8b85                	andi	a5,a5,1
	uint16_t div = (sys_clock_hw_cycles_per_sec() + bus_freq - 1) / bus_freq;
1c012ce0:	8341                	srli	a4,a4,0x10
	if (div & 1) {
1c012ce2:	c781                	beqz	a5,1c012cea <i2c_puppy_init+0x3e>
		div += 1;
1c012ce4:	0705                	addi	a4,a4,1
1c012ce6:	0742                	slli	a4,a4,0x10
1c012ce8:	8341                	srli	a4,a4,0x10
	return (div >> 2);
1c012cea:	8309                	srli	a4,a4,0x2
	data->clock_div = i2c_puppy_get_div(config->bus_freq);
1c012cec:	00e61023          	sh	a4,0(a2)

	if (config->id == 1) {
1c012cf0:	4018                	lw	a4,0(s0)
1c012cf2:	4785                	li	a5,1
1c012cf4:	00f71a63          	bne	a4,a5,1c012d08 <i2c_puppy_init+0x5c>
		config_pad_func(config->sda_pin, 2);
1c012cf8:	4448                	lw	a0,12(s0)
1c012cfa:	332d                	jal	1c012a24 <config_pad_func.constprop.0>
		config_pad_cfg(config->sda_pin, 0xfe);
1c012cfc:	4448                	lw	a0,12(s0)
1c012cfe:	39d5                	jal	1c0129f2 <config_pad_cfg.constprop.0>
		config_pad_func(config->scl_pin, 2);
1c012d00:	4808                	lw	a0,16(s0)
1c012d02:	330d                	jal	1c012a24 <config_pad_func.constprop.0>
		config_pad_cfg(config->scl_pin, 0xfe);
1c012d04:	4808                	lw	a0,16(s0)
1c012d06:	31f5                	jal	1c0129f2 <config_pad_cfg.constprop.0>

	// puppy_event_register_callback(&eot_event, (void *)dev);
	// puppy_event_enable(ARCHI_UDMA_I2C_EOT_EVT(config->id));

	return 0;
}
1c012d08:	40b2                	lw	ra,12(sp)
1c012d0a:	4422                	lw	s0,8(sp)
1c012d0c:	4501                	li	a0,0
1c012d0e:	0141                	addi	sp,sp,16
1c012d10:	8082                	ret

1c012d12 <pwm_puppy_init>:
	.set_cycles = pwm_puppy_set_cycles,
};

static int pwm_puppy_init(const struct device *dev)
{
	struct pwm_puppy_data *data = dev->data;
1c012d12:	491c                	lw	a5,16(a0)
1c012d14:	46a1                	li	a3,8

	sys_write32(TIMER_CFG(1, COUNT_MATCH_RST, CLK_MAIN, MODE_CLK_CYCLE, INSEL),
		    data->base + CFG_OFFSET);

	return 0;
}
1c012d16:	4501                	li	a0,0
1c012d18:	4398                	lw	a4,0(a5)
1c012d1a:	c314                	sw	a3,0(a4)
		    data->base + CFG_OFFSET);
1c012d1c:	439c                	lw	a5,0(a5)
1c012d1e:	6745                	lui	a4,0x11
1c012d20:	c3d8                	sw	a4,4(a5)
}
1c012d22:	8082                	ret

1c012d24 <pwm_puppy_get_cycles_per_sec>:
{
1c012d24:	1141                	addi	sp,sp,-16
1c012d26:	c606                	sw	ra,12(sp)
	int prescaler = (sys_read32(data->base + CFG_OFFSET) >> CLKDIV_OFFSET) & 0xf;
1c012d28:	491c                	lw	a5,16(a0)
{
1c012d2a:	8732                	mv	a4,a2
		*cycles = 32768 / 2;
1c012d2c:	6611                	lui	a2,0x4
	int prescaler = (sys_read32(data->base + CFG_OFFSET) >> CLKDIV_OFFSET) & 0xf;
1c012d2e:	439c                	lw	a5,0(a5)
	return *(volatile uint32_t *)addr;
1c012d30:	43d4                	lw	a3,4(a5)
1c012d32:	43dc                	lw	a5,4(a5)
	int clksel = sys_read32(data->base + CFG_OFFSET) >> CLKSEL_OFFSET & 0x1;
1c012d34:	83ad                	srli	a5,a5,0xb
	if (clksel) {
1c012d36:	8b85                	andi	a5,a5,1
1c012d38:	e789                	bnez	a5,1c012d42 <pwm_puppy_get_cycles_per_sec+0x1e>
		*cycles = sys_clock_hw_cycles_per_sec() / 2;
1c012d3a:	00989637          	lui	a2,0x989
1c012d3e:	68060613          	addi	a2,a2,1664 # 989680 <CONFIG_FLASH_LOAD_SIZE+0x949680>
1c012d42:	4681                	li	a3,0
	LOG_DBG("%lld cyc/s", *cycles);
1c012d44:	1c015537          	lui	a0,0x1c015
1c012d48:	27450513          	addi	a0,a0,628 # 1c015274 <i2c_puppy_0_config+0x14>
1c012d4c:	c310                	sw	a2,0(a4)
1c012d4e:	c354                	sw	a3,4(a4)
1c012d50:	04400593          	li	a1,68
1c012d54:	a87fe0ef          	jal	ra,1c0117da <z_log_minimal_printk>
}
1c012d58:	40b2                	lw	ra,12(sp)
1c012d5a:	4501                	li	a0,0
1c012d5c:	0141                	addi	sp,sp,16
1c012d5e:	8082                	ret

1c012d60 <pwm_puppy_set_cycles>:
{
1c012d60:	7179                	addi	sp,sp,-48
1c012d62:	d422                	sw	s0,40(sp)
1c012d64:	d04a                	sw	s2,32(sp)
1c012d66:	d606                	sw	ra,44(sp)
1c012d68:	d226                	sw	s1,36(sp)
1c012d6a:	ce4e                	sw	s3,28(sp)
	struct pwm_puppy_data *data = dev->data;
1c012d6c:	4904                	lw	s1,16(a0)
	const struct pwm_puppy_config *config = dev->config;
1c012d6e:	00452983          	lw	s3,4(a0)
{
1c012d72:	892e                	mv	s2,a1
1c012d74:	8432                	mv	s0,a2
1c012d76:	87b6                	mv	a5,a3
	if (inverted) {
1c012d78:	cf09                	beqz	a4,1c012d92 <pwm_puppy_set_cycles+0x32>
		LOG_DBG("invert polarity");
1c012d7a:	1c015537          	lui	a0,0x1c015
1c012d7e:	04400593          	li	a1,68
1c012d82:	28450513          	addi	a0,a0,644 # 1c015284 <i2c_puppy_0_config+0x24>
1c012d86:	c636                	sw	a3,12(sp)
1c012d88:	a53fe0ef          	jal	ra,1c0117da <z_log_minimal_printk>
		pulse = period - pulse;
1c012d8c:	47b2                	lw	a5,12(sp)
1c012d8e:	40f407b3          	sub	a5,s0,a5
	if (channel > 3) {
1c012d92:	468d                	li	a3,3
	uint8_t prescaler = 1;
1c012d94:	4805                	li	a6,1
	for (; period > UINT16_MAX; prescaler++) {
1c012d96:	6741                	lui	a4,0x10
	if (channel > 3) {
1c012d98:	0326f863          	bgeu	a3,s2,1c012dc8 <pwm_puppy_set_cycles+0x68>
		LOG_ERR("Channel %d does not exist", channel);
1c012d9c:	1c015537          	lui	a0,0x1c015
1c012da0:	29c50513          	addi	a0,a0,668 # 1c01529c <i2c_puppy_0_config+0x3c>
1c012da4:	864a                	mv	a2,s2
1c012da6:	04500593          	li	a1,69
1c012daa:	a31fe0ef          	jal	ra,1c0117da <z_log_minimal_printk>
		return -EINVAL;
1c012dae:	5529                	li	a0,-22
}
1c012db0:	50b2                	lw	ra,44(sp)
1c012db2:	5422                	lw	s0,40(sp)
1c012db4:	5492                	lw	s1,36(sp)
1c012db6:	5902                	lw	s2,32(sp)
1c012db8:	49f2                	lw	s3,28(sp)
1c012dba:	6145                	addi	sp,sp,48
1c012dbc:	8082                	ret
	for (; period > UINT16_MAX; prescaler++) {
1c012dbe:	0805                	addi	a6,a6,1 # 30001 <CONFIG_FLASH_LOAD_OFFSET+0x10001>
		period /= 2;
1c012dc0:	8005                	srli	s0,s0,0x1
		pulse /= 2;
1c012dc2:	8385                	srli	a5,a5,0x1
	for (; period > UINT16_MAX; prescaler++) {
1c012dc4:	0ff87813          	zext.b	a6,a6
1c012dc8:	fee47be3          	bgeu	s0,a4,1c012dbe <pwm_puppy_set_cycles+0x5e>
	if (period == pulse) {
1c012dcc:	00879463          	bne	a5,s0,1c012dd4 <pwm_puppy_set_cycles+0x74>
		period -= 1; // fix so 100% duty cycle does not fallback to 50% in hardware
1c012dd0:	fff78413          	addi	s0,a5,-1
1c012dd4:	1a1056b7          	lui	a3,0x1a105
		sys_write32(adv_tim_reg | BIT(group), ADV_TIMER_CG);
1c012dd8:	0009a703          	lw	a4,0(s3)
1c012ddc:	10468693          	addi	a3,a3,260 # 1a105104 <CONFIG_TIMER_RANDOM_INITIAL_STATE+0x12b483ef>
1c012de0:	428c                	lw	a1,0(a3)
1c012de2:	4605                	li	a2,1
1c012de4:	00e61733          	sll	a4,a2,a4
1c012de8:	8f4d                	or	a4,a4,a1
	*(volatile uint32_t *)addr = data;
1c012dea:	c298                	sw	a4,0(a3)
1c012dec:	4098                	lw	a4,0(s1)
1c012dee:	4689                	li	a3,2
	sys_write32((sys_read32(data->base + CFG_OFFSET) & 0xff) | prescaler << 16,
1c012df0:	01081593          	slli	a1,a6,0x10
1c012df4:	c314                	sw	a3,0(a4)
1c012df6:	4094                	lw	a3,0(s1)
	LOG_DBG("Set pwm %d chan %d period %d pulse %d, prescaler %x", config->id, channel, period,
1c012df8:	1c015537          	lui	a0,0x1c015
1c012dfc:	2bc50513          	addi	a0,a0,700 # 1c0152bc <i2c_puppy_0_config+0x5c>
	return *(volatile uint32_t *)addr;
1c012e00:	42d8                	lw	a4,4(a3)
	sys_write32((sys_read32(data->base + CFG_OFFSET) & 0xff) | prescaler << 16,
1c012e02:	0ff77713          	zext.b	a4,a4
1c012e06:	8f4d                	or	a4,a4,a1
	*(volatile uint32_t *)addr = data;
1c012e08:	c2d8                	sw	a4,4(a3)
	sys_write32(TIMER_THRESHOLD(period, 0), data->base + THRESH_OFFSET);
1c012e0a:	4098                	lw	a4,0(s1)
1c012e0c:	01041693          	slli	a3,s0,0x10
1c012e10:	c714                	sw	a3,8(a4)
	sys_write32(TIMER_CH_CFG(0x6, pulse), data->base + CH_OFFSET(channel));
1c012e12:	408c                	lw	a1,0(s1)
1c012e14:	00390713          	addi	a4,s2,3
1c012e18:	000606b7          	lui	a3,0x60
1c012e1c:	070a                	slli	a4,a4,0x2
1c012e1e:	8edd                	or	a3,a3,a5
1c012e20:	972e                	add	a4,a4,a1
1c012e22:	c314                	sw	a3,0(a4)
1c012e24:	4098                	lw	a4,0(s1)
1c012e26:	46a1                	li	a3,8
	LOG_DBG("Set pwm %d chan %d period %d pulse %d, prescaler %x", config->id, channel, period,
1c012e28:	04400593          	li	a1,68
1c012e2c:	c314                	sw	a3,0(a4)
1c012e2e:	4098                	lw	a4,0(s1)
1c012e30:	4691                	li	a3,4
1c012e32:	c314                	sw	a3,0(a4)
1c012e34:	4098                	lw	a4,0(s1)
1c012e36:	86ca                	mv	a3,s2
1c012e38:	c310                	sw	a2,0(a4)
1c012e3a:	0009a603          	lw	a2,0(s3)
1c012e3e:	8722                	mv	a4,s0
1c012e40:	99bfe0ef          	jal	ra,1c0117da <z_log_minimal_printk>
	return 0;
1c012e44:	4501                	li	a0,0
1c012e46:	b7ad                	j	1c012db0 <pwm_puppy_set_cycles+0x50>

1c012e48 <uart_puppy_configure>:
	bool tx;
};

static int uart_puppy_configure(const struct device *dev, const struct uart_config *cfg)
{
	struct uart_puppy_data *data = dev->data;
1c012e48:	4910                	lw	a2,16(a0)
	uint32_t baudrate, clk_div, polling_en, stop_bits, bit_length, parity_en;
	uint32_t setup = 0;

	if (cfg == NULL) {
1c012e4a:	c1a5                	beqz	a1,1c012eaa <uart_puppy_configure+0x62>
		return -EINVAL;
	}

	baudrate = cfg->baudrate;
1c012e4c:	4194                	lw	a3,0(a1)
	if (baudrate > sys_clock_hw_cycles_per_sec()) {
1c012e4e:	013137b7          	lui	a5,0x1313
1c012e52:	d0078793          	addi	a5,a5,-768 # 1312d00 <CONFIG_SYS_CLOCK_HW_CYCLES_PER_SEC>
		return -EINVAL;
1c012e56:	5529                	li	a0,-22
	if (baudrate > sys_clock_hw_cycles_per_sec()) {
1c012e58:	04d7ea63          	bltu	a5,a3,1c012eac <uart_puppy_configure+0x64>
		return -EINVAL;
	} else {
		clk_div = (sys_clock_hw_cycles_per_sec() + baudrate / 2) / baudrate - 1;
1c012e5c:	0016d713          	srli	a4,a3,0x1
1c012e60:	973e                	add	a4,a4,a5
1c012e62:	02d75733          	divu	a4,a4,a3
	polling_en = 0;
#else
	polling_en = 1;
#endif

	if (cfg->parity == UART_CFG_PARITY_NONE) {
1c012e66:	0045c783          	lbu	a5,4(a1) # 60000004 <__kernel_ram_end+0x43fe8d14>
		clk_div = (sys_clock_hw_cycles_per_sec() + baudrate / 2) / baudrate - 1;
1c012e6a:	177d                	addi	a4,a4,-1 # ffff <CONFIG_SYS_CLOCK_TICKS_PER_SEC+0x85ed>
	if (cfg->parity == UART_CFG_PARITY_NONE) {
1c012e6c:	cf8d                	beqz	a5,1c012ea6 <uart_puppy_configure+0x5e>
		parity_en = 0;
	} else if (cfg->parity == UART_CFG_PARITY_EVEN) {
1c012e6e:	4689                	li	a3,2
1c012e70:	02d79e63          	bne	a5,a3,1c012eac <uart_puppy_configure+0x64>
		parity_en = 1;
1c012e74:	4685                	li	a3,1
	} else {
		return -EINVAL;
	}

	if (cfg->stop_bits == UART_CFG_STOP_BITS_1) {
1c012e76:	0055c783          	lbu	a5,5(a1)
1c012e7a:	4805                	li	a6,1
		return -EINVAL;
1c012e7c:	5529                	li	a0,-22
	if (cfg->stop_bits == UART_CFG_STOP_BITS_1) {
1c012e7e:	0fd7f793          	andi	a5,a5,253
1c012e82:	03079563          	bne	a5,a6,1c012eac <uart_puppy_configure+0x64>
		stop_bits = 1;
	} else {
		return -EINVAL;
	}

	if (cfg->data_bits == UART_CFG_DATA_BITS_9) {
1c012e86:	0065c783          	lbu	a5,6(a1)
1c012e8a:	4591                	li	a1,4
1c012e8c:	02b78063          	beq	a5,a1,1c012eac <uart_puppy_configure+0x64>
		return -EINVAL;
	} else {
		bit_length = cfg->data_bits & 0x3;
1c012e90:	8b8d                	andi	a5,a5,3
	}

	setup = (clk_div << UART_CLKDIV_SHIFT) | (polling_en & UART_POLL_EN) | UART_TXEN |
		UART_RXEN | (stop_bits & UART_STOP_BITS) | (bit_length << UART_BIT_LEN_SHIFT) |
1c012e92:	0786                	slli	a5,a5,0x1
1c012e94:	8fd5                	or	a5,a5,a3
	setup = (clk_div << UART_CLKDIV_SHIFT) | (polling_en & UART_POLL_EN) | UART_TXEN |
1c012e96:	0742                	slli	a4,a4,0x10
		UART_RXEN | (stop_bits & UART_STOP_BITS) | (bit_length << UART_BIT_LEN_SHIFT) |
1c012e98:	8fd9                	or	a5,a5,a4
		(parity_en & UART_PARITY_EN);

	sys_write32(setup, data->base + UART_SETUP);
1c012e9a:	4218                	lw	a4,0(a2)
	setup = (clk_div << UART_CLKDIV_SHIFT) | (polling_en & UART_POLL_EN) | UART_TXEN |
1c012e9c:	3007e793          	ori	a5,a5,768

	return 0;
1c012ea0:	4501                	li	a0,0
1c012ea2:	d35c                	sw	a5,36(a4)
1c012ea4:	8082                	ret
		parity_en = 0;
1c012ea6:	4681                	li	a3,0
1c012ea8:	b7f9                	j	1c012e76 <uart_puppy_configure+0x2e>
		return -EINVAL;
1c012eaa:	5529                	li	a0,-22
}
1c012eac:	8082                	ret

1c012eae <uart_puppy_poll_in>:

static int uart_puppy_poll_in(const struct device *dev, unsigned char *c)
{
	struct uart_puppy_data *data = dev->data;

	if (!sys_read32(data->base + UART_VALID)) {
1c012eae:	491c                	lw	a5,16(a0)
1c012eb0:	439c                	lw	a5,0(a5)
	return *(volatile uint32_t *)addr;
1c012eb2:	5b98                	lw	a4,48(a5)
1c012eb4:	c711                	beqz	a4,1c012ec0 <uart_puppy_poll_in+0x12>
1c012eb6:	5bdc                	lw	a5,52(a5)
		return -1;
	}

	*c = sys_read32(data->base + UART_DATA);
	return 0;
1c012eb8:	4501                	li	a0,0
	*c = sys_read32(data->base + UART_DATA);
1c012eba:	00f58023          	sb	a5,0(a1)
	return 0;
1c012ebe:	8082                	ret
		return -1;
1c012ec0:	557d                	li	a0,-1
}
1c012ec2:	8082                	ret

1c012ec4 <uart_puppy_poll_out>:

static void uart_puppy_poll_out(const struct device *dev, unsigned char c)
{
	struct uart_puppy_data *data = dev->data;
1c012ec4:	4914                	lw	a3,16(a0)
{
1c012ec6:	1141                	addi	sp,sp,-16
1c012ec8:	00b107a3          	sb	a1,15(sp)
	while (!plp_udma_canEnqueue(data->base + UDMA_CHANNEL_TX_OFFSET))
1c012ecc:	429c                	lw	a5,0(a3)
	return !(sys_read32(channelBase + UDMA_CHANNEL_CFG_OFFSET) & UDMA_CHANNEL_CFG_SHADOW);
1c012ece:	01878613          	addi	a2,a5,24
1c012ed2:	4218                	lw	a4,0(a2)
1c012ed4:	02077713          	andi	a4,a4,32
1c012ed8:	ff6d                	bnez	a4,1c012ed2 <uart_puppy_poll_out+0xe>
		;

	plp_udma_enqueue(data->base + UDMA_CHANNEL_TX_OFFSET, (uint32_t)&c, 1,
1c012eda:	00f10713          	addi	a4,sp,15
	*(volatile uint32_t *)addr = data;
1c012ede:	cb98                	sw	a4,16(a5)
1c012ee0:	4705                	li	a4,1
1c012ee2:	cbd8                	sw	a4,20(a5)
1c012ee4:	4741                	li	a4,16
1c012ee6:	cf98                	sw	a4,24(a5)
	return (sys_read32(channelOffset + UDMA_CHANNEL_CFG_OFFSET) & UDMA_CHANNEL_CFG_EN);
1c012ee8:	4298                	lw	a4,0(a3)
1c012eea:	0761                	addi	a4,a4,24
	return *(volatile uint32_t *)addr;
1c012eec:	431c                	lw	a5,0(a4)
1c012eee:	8bc1                	andi	a5,a5,16
			 UDMA_CHANNEL_CFG_SIZE_8);

	while (plp_udma_busy(data->base + UDMA_CHANNEL_TX_OFFSET))
1c012ef0:	fff5                	bnez	a5,1c012eec <uart_puppy_poll_out+0x28>
		;
}
1c012ef2:	0141                	addi	sp,sp,16
1c012ef4:	8082                	ret

1c012ef6 <uart_puppy_init>:

#endif /* CONFIG_UART_INTERRUPT_DRIVEN */

static int uart_puppy_init(const struct device *dev)
{
	struct uart_puppy_data *data = dev->data;
1c012ef6:	4914                	lw	a3,16(a0)
1c012ef8:	1a102737          	lui	a4,0x1a102
1c012efc:	431c                	lw	a5,0(a4)
	const struct uart_config *config = &(data->uart_config);
1c012efe:	00468593          	addi	a1,a3,4 # 60004 <CONFIG_FLASH_LOAD_SIZE+0x20004>

	uint32_t cg_conf = plp_udma_cg_get();

	if (data->id == 0) {
1c012f02:	46d4                	lw	a3,12(a3)
1c012f04:	e689                	bnez	a3,1c012f0e <uart_puppy_init+0x18>
		plp_udma_cg_set(cg_conf | BIT(UDMA_UART0_ID));
1c012f06:	0017e793          	ori	a5,a5,1
	*(volatile uint32_t *)addr = data;
1c012f0a:	c31c                	sw	a5,0(a4)

#ifdef CONFIG_UART_INTERRUPT_DRIVEN
	puppy_event_register_callback((event_callback_t)&uart_puppy_irq_handler, (void *)dev);
#endif /* CONFIG_UART_INTERRUPT_DRIVEN */

	return uart_puppy_configure(dev, config);
1c012f0c:	bf35                	j	1c012e48 <uart_puppy_configure>
	else if (data->id == 1) {
1c012f0e:	4605                	li	a2,1
1c012f10:	fec69ee3          	bne	a3,a2,1c012f0c <uart_puppy_init+0x16>
		plp_udma_cg_set(cg_conf | BIT(UDMA_UART1_ID));
1c012f14:	1007e793          	ori	a5,a5,256
1c012f18:	bfcd                	j	1c012f0a <uart_puppy_init+0x14>

1c012f1a <spi_context_get_next_buf.constprop.0>:
					     size_t *count,
					     size_t *buf_len,
					     uint8_t dfs)
{
	/* This loop skips zero-length buffers in the set, if any. */
	while (*count) {
1c012f1a:	419c                	lw	a5,0(a1)
1c012f1c:	e789                	bnez	a5,1c012f26 <spi_context_get_next_buf.constprop.0+0xc>
		}
		++(*current);
		--(*count);
	}

	*buf_len = 0;
1c012f1e:	00062023          	sw	zero,0(a2)
	return NULL;
1c012f22:	4501                	li	a0,0
}
1c012f24:	8082                	ret
		if (((*current)->len / dfs) != 0) {
1c012f26:	411c                	lw	a5,0(a0)
1c012f28:	43d8                	lw	a4,4(a5)
1c012f2a:	c709                	beqz	a4,1c012f34 <spi_context_get_next_buf.constprop.0+0x1a>
			*buf_len = (*current)->len / dfs;
1c012f2c:	c218                	sw	a4,0(a2)
			return (*current)->buf;
1c012f2e:	411c                	lw	a5,0(a0)
1c012f30:	4388                	lw	a0,0(a5)
1c012f32:	8082                	ret
		++(*current);
1c012f34:	07a1                	addi	a5,a5,8
1c012f36:	c11c                	sw	a5,0(a0)
		--(*count);
1c012f38:	419c                	lw	a5,0(a1)
1c012f3a:	17fd                	addi	a5,a5,-1
1c012f3c:	c19c                	sw	a5,0(a1)
1c012f3e:	bff1                	j	1c012f1a <spi_context_get_next_buf.constprop.0>

1c012f40 <spi_puppy_transceive>:
}

static int spi_puppy_transceive(const struct device *dev, const struct spi_config *config,
				const struct spi_buf_set *tx_bufs,
				const struct spi_buf_set *rx_bufs)
{
1c012f40:	7119                	addi	sp,sp,-128
1c012f42:	dca2                	sw	s0,120(sp)
1c012f44:	daa6                	sw	s1,116(sp)
1c012f46:	d8ca                	sw	s2,112(sp)
1c012f48:	d6ce                	sw	s3,108(sp)
1c012f4a:	de86                	sw	ra,124(sp)
1c012f4c:	d4d2                	sw	s4,104(sp)
1c012f4e:	d2d6                	sw	s5,100(sp)
1c012f50:	d0da                	sw	s6,96(sp)
1c012f52:	cede                	sw	s7,92(sp)
1c012f54:	cce2                	sw	s8,88(sp)
1c012f56:	cae6                	sw	s9,84(sp)
1c012f58:	c8ea                	sw	s10,80(sp)
1c012f5a:	c6ee                	sw	s11,76(sp)
			      (k_sem_count_get(&ctx->lock) == 0) &&
1c012f5c:	0045d783          	lhu	a5,4(a1)
1c012f60:	6709                	lui	a4,0x2
	struct spi_puppy_data *data = (struct spi_puppy_data *)dev->data;
1c012f62:	01052c03          	lw	s8,16(a0)
1c012f66:	8ff9                	and	a5,a5,a4
{
1c012f68:	892a                	mv	s2,a0
1c012f6a:	842e                	mv	s0,a1
1c012f6c:	89b2                	mv	s3,a2
1c012f6e:	84b6                	mv	s1,a3
1c012f70:	eba5                	bnez	a5,1c012fe0 <spi_puppy_transceive+0xa0>
	return z_impl_k_sem_take(sem, timeout);
1c012f72:	55fd                	li	a1,-1
1c012f74:	567d                	li	a2,-1
1c012f76:	008c0513          	addi	a0,s8,8 # 20000008 <__kernel_ram_end+0x3fe8d18>
1c012f7a:	7c8000ef          	jal	ra,1c013742 <z_impl_k_sem_take>
		ctx->owner = spi_cfg;
1c012f7e:	008c2223          	sw	s0,4(s8)
	uint16_t operation = config->operation;
1c012f82:	00445783          	lhu	a5,4(s0)
1c012f86:	01092703          	lw	a4,16(s2)
	if (operation & SPI_OP_MODE_SLAVE) {
1c012f8a:	0017f693          	andi	a3,a5,1
1c012f8e:	c2ad                	beqz	a3,1c012ff0 <spi_puppy_transceive+0xb0>
		LOG_ERR("Slave mode not supported");
1c012f90:	1c015537          	lui	a0,0x1c015
1c012f94:	04500593          	li	a1,69
1c012f98:	36450513          	addi	a0,a0,868 # 1c015364 <i2c_puppy_0_config+0x104>
		LOG_ERR("Half-duplex not supported");
1c012f9c:	83ffe0ef          	jal	ra,1c0117da <z_log_minimal_printk>
		return -ENOTSUP;
1c012fa0:	f7a00413          	li	s0,-134
	if ((ctx->config == NULL) || !(ctx->config->operation & SPI_LOCK_ON)) {
1c012fa4:	000c2783          	lw	a5,0(s8)
1c012fa8:	c791                	beqz	a5,1c012fb4 <spi_puppy_transceive+0x74>
1c012faa:	0047d783          	lhu	a5,4(a5)
1c012fae:	6709                	lui	a4,0x2
1c012fb0:	8ff9                	and	a5,a5,a4
1c012fb2:	e799                	bnez	a5,1c012fc0 <spi_puppy_transceive+0x80>
		ctx->owner = NULL;
1c012fb4:	000c2223          	sw	zero,4(s8)
	z_impl_k_sem_give(sem);
1c012fb8:	008c0513          	addi	a0,s8,8
1c012fbc:	716000ef          	jal	ra,1c0136d2 <z_impl_k_sem_give>
	spi_context_complete(&data->ctx, dev, 0);

done:
	spi_context_release(&data->ctx, ret);
	return ret;
}
1c012fc0:	50f6                	lw	ra,124(sp)
1c012fc2:	8522                	mv	a0,s0
1c012fc4:	5466                	lw	s0,120(sp)
1c012fc6:	54d6                	lw	s1,116(sp)
1c012fc8:	5946                	lw	s2,112(sp)
1c012fca:	59b6                	lw	s3,108(sp)
1c012fcc:	5a26                	lw	s4,104(sp)
1c012fce:	5a96                	lw	s5,100(sp)
1c012fd0:	5b06                	lw	s6,96(sp)
1c012fd2:	4bf6                	lw	s7,92(sp)
1c012fd4:	4c66                	lw	s8,88(sp)
1c012fd6:	4cd6                	lw	s9,84(sp)
1c012fd8:	4d46                	lw	s10,80(sp)
1c012fda:	4db6                	lw	s11,76(sp)
1c012fdc:	6109                	addi	sp,sp,128
1c012fde:	8082                	ret
	bool already_locked = (spi_cfg->operation & SPI_LOCK_ON) &&
1c012fe0:	010c2783          	lw	a5,16(s8)
1c012fe4:	f7d9                	bnez	a5,1c012f72 <spi_puppy_transceive+0x32>
			      (k_sem_count_get(&ctx->lock) == 0) &&
1c012fe6:	004c2783          	lw	a5,4(s8)
1c012fea:	f8f594e3          	bne	a1,a5,1c012f72 <spi_puppy_transceive+0x32>
1c012fee:	bf51                	j	1c012f82 <spi_puppy_transceive+0x42>
	if (operation & SPI_HALF_DUPLEX) {
1c012ff0:	00b7d693          	srli	a3,a5,0xb
1c012ff4:	8a85                	andi	a3,a3,1
1c012ff6:	ca81                	beqz	a3,1c013006 <spi_puppy_transceive+0xc6>
		LOG_ERR("Half-duplex not supported");
1c012ff8:	1c015537          	lui	a0,0x1c015
1c012ffc:	04500593          	li	a1,69
1c013000:	38450513          	addi	a0,a0,900 # 1c015384 <i2c_puppy_0_config+0x124>
1c013004:	bf61                	j	1c012f9c <spi_puppy_transceive+0x5c>
	if (operation & SPI_MODE_LOOP) {
1c013006:	0087f693          	andi	a3,a5,8
1c01300a:	ca81                	beqz	a3,1c01301a <spi_puppy_transceive+0xda>
		LOG_ERR("Loopback mode is not supported");
1c01300c:	1c015537          	lui	a0,0x1c015
1c013010:	04500593          	li	a1,69
1c013014:	3a450513          	addi	a0,a0,932 # 1c0153a4 <i2c_puppy_0_config+0x144>
1c013018:	b751                	j	1c012f9c <spi_puppy_transceive+0x5c>
	data->cpol = (operation & SPI_MODE_CPOL) ? 1U : 0U;
1c01301a:	0017d693          	srli	a3,a5,0x1
1c01301e:	8a85                	andi	a3,a3,1
1c013020:	cb34                	sw	a3,80(a4)
	data->cpha = (operation & SPI_MODE_CPHA) ? 1U : 0U;
1c013022:	0027d693          	srli	a3,a5,0x2
1c013026:	8a85                	andi	a3,a3,1
1c013028:	cb74                	sw	a3,84(a4)
	data->lsb = (operation & SPI_TRANSFER_LSB) ? 1U : 0U;
1c01302a:	0047d693          	srli	a3,a5,0x4
	data->holdcs = (operation & SPI_HOLD_ON_CS) ? 1U : 0U;
1c01302e:	83b1                	srli	a5,a5,0xc
	data->lsb = (operation & SPI_TRANSFER_LSB) ? 1U : 0U;
1c013030:	8a85                	andi	a3,a3,1
	data->holdcs = (operation & SPI_HOLD_ON_CS) ? 1U : 0U;
1c013032:	8b85                	andi	a5,a5,1
	data->lsb = (operation & SPI_TRANSFER_LSB) ? 1U : 0U;
1c013034:	d334                	sw	a3,96(a4)
	data->holdcs = (operation & SPI_HOLD_ON_CS) ? 1U : 0U;
1c013036:	d37c                	sw	a5,100(a4)
	data->quad = (operation & SPI_LINES_QUAD) ? 1U : 0U;
1c013038:	04072e23          	sw	zero,92(a4) # 205c <__kernel_ram_size+0x498>
	data->clkdiv = spi_puppy_calc_clkdiv(config->frequency);
1c01303c:	4010                	lw	a2,0(s0)
	if (frequency > 0UL && frequency < sys_clock_hw_cycles_per_sec()) {
1c01303e:	013136b7          	lui	a3,0x1313
1c013042:	cfe68593          	addi	a1,a3,-770 # 1312cfe <CONFIG_FLASH_LOAD_SIZE+0x12d2cfe>
1c013046:	fff60513          	addi	a0,a2,-1
	uint32_t clkdiv = 0UL;
1c01304a:	4781                	li	a5,0
	if (frequency > 0UL && frequency < sys_clock_hw_cycles_per_sec()) {
1c01304c:	00a5ec63          	bltu	a1,a0,1c013064 <spi_puppy_transceive+0x124>
		clkdiv = (sys_clock_hw_cycles_per_sec() + frequency - 1UL) / frequency;
1c013050:	cff68693          	addi	a3,a3,-769
1c013054:	96b2                	add	a3,a3,a2
1c013056:	02c6d7b3          	divu	a5,a3,a2
		if (clkdiv & 1UL) {
1c01305a:	0017f693          	andi	a3,a5,1
1c01305e:	c291                	beqz	a3,1c013062 <spi_puppy_transceive+0x122>
			clkdiv++;
1c013060:	0785                	addi	a5,a5,1
		clkdiv >>= 1;
1c013062:	8385                	srli	a5,a5,0x1
	data->clkdiv = spi_puppy_calc_clkdiv(config->frequency);
1c013064:	cf3c                	sw	a5,88(a4)
void spi_context_buffers_setup(struct spi_context *ctx,
			       const struct spi_buf_set *tx_bufs,
			       const struct spi_buf_set *rx_bufs,
			       uint8_t dfs)
{
	LOG_DBG("tx_bufs %p - rx_bufs %p - %u", tx_bufs, rx_bufs, dfs);
1c013066:	1c015537          	lui	a0,0x1c015
	data->first = true;
1c01306a:	4785                	li	a5,1
1c01306c:	46f70623          	sb	a5,1132(a4)
	data->ctx.config = config;
1c013070:	c300                	sw	s0,0(a4)
1c013072:	86a6                	mv	a3,s1
1c013074:	4705                	li	a4,1
1c013076:	864e                	mv	a2,s3
1c013078:	04400593          	li	a1,68
1c01307c:	3c850513          	addi	a0,a0,968 # 1c0153c8 <i2c_puppy_0_config+0x168>
1c013080:	f5afe0ef          	jal	ra,1c0117da <z_log_minimal_printk>

	ctx->current_tx = tx_bufs ? tx_bufs->buffers : NULL;
1c013084:	1c099a63          	bnez	s3,1c013258 <spi_puppy_transceive+0x318>
1c013088:	020c2623          	sw	zero,44(s8)
	ctx->tx_count = ctx->current_tx ? tx_bufs->count : 0;
1c01308c:	4781                	li	a5,0
1c01308e:	02fc2823          	sw	a5,48(s8)
	ctx->tx_buf = (const uint8_t *)
		spi_context_get_next_buf(&ctx->current_tx, &ctx->tx_count,
1c013092:	040c0613          	addi	a2,s8,64
1c013096:	030c0593          	addi	a1,s8,48
1c01309a:	02cc0513          	addi	a0,s8,44
1c01309e:	3db5                	jal	1c012f1a <spi_context_get_next_buf.constprop.0>
	ctx->tx_buf = (const uint8_t *)
1c0130a0:	02ac2e23          	sw	a0,60(s8)
		spi_context_get_next_buf(&ctx->current_tx, &ctx->tx_count,
1c0130a4:	882a                	mv	a6,a0
					 &ctx->tx_len, dfs);

	ctx->current_rx = rx_bufs ? rx_bufs->buffers : NULL;
1c0130a6:	1c049263          	bnez	s1,1c01326a <spi_puppy_transceive+0x32a>
1c0130aa:	020c2a23          	sw	zero,52(s8)
	ctx->rx_count = ctx->current_rx ? rx_bufs->count : 0;
1c0130ae:	4781                	li	a5,0
1c0130b0:	02fc2c23          	sw	a5,56(s8)
	ctx->rx_buf = (uint8_t *)
		spi_context_get_next_buf(&ctx->current_rx, &ctx->rx_count,
1c0130b4:	048c0613          	addi	a2,s8,72
1c0130b8:	038c0593          	addi	a1,s8,56
1c0130bc:	034c0513          	addi	a0,s8,52
1c0130c0:	ce42                	sw	a6,28(sp)
1c0130c2:	3da1                	jal	1c012f1a <spi_context_get_next_buf.constprop.0>

#ifdef CONFIG_SPI_SLAVE
	ctx->recv_frames = 0;
#endif /* CONFIG_SPI_SLAVE */

	LOG_DBG("current_tx %p (%zu), current_rx %p (%zu),"
1c0130c4:	048c2583          	lw	a1,72(s8)
1c0130c8:	038c2783          	lw	a5,56(s8)
	ctx->rx_buf = (uint8_t *)
1c0130cc:	04ac2223          	sw	a0,68(s8)
	LOG_DBG("current_tx %p (%zu), current_rx %p (%zu),"
1c0130d0:	040c2883          	lw	a7,64(s8)
1c0130d4:	034c2703          	lw	a4,52(s8)
1c0130d8:	030c2683          	lw	a3,48(s8)
1c0130dc:	02cc2603          	lw	a2,44(s8)
	ctx->sync_status = 0;
1c0130e0:	020c2423          	sw	zero,40(s8)
	LOG_DBG("current_tx %p (%zu), current_rx %p (%zu),"
1c0130e4:	4872                	lw	a6,28(sp)
1c0130e6:	c02a                	sw	a0,0(sp)
1c0130e8:	1c015537          	lui	a0,0x1c015
1c0130ec:	c22e                	sw	a1,4(sp)
1c0130ee:	3ec50513          	addi	a0,a0,1004 # 1c0153ec <i2c_puppy_0_config+0x18c>
1c0130f2:	04400593          	li	a1,68
1c0130f6:	ee4fe0ef          	jal	ra,1c0117da <z_log_minimal_printk>
	if (data->ctx.tx_buf == NULL && data->ctx.rx_buf == NULL) {
1c0130fa:	03cc2783          	lw	a5,60(s8)
1c0130fe:	e789                	bnez	a5,1c013108 <spi_puppy_transceive+0x1c8>
1c013100:	044c2783          	lw	a5,68(s8)
1c013104:	14078863          	beqz	a5,1c013254 <spi_puppy_transceive+0x314>
		cmd_buf[i++] = SPI_CMD_EOT(1, data->holdcs);
1c013108:	90000ab7          	lui	s5,0x90000
						 &ctx->tx_len, dfs);
	} else if (ctx->tx_buf) {
		ctx->tx_buf += dfs * len;
	}

	LOG_DBG("tx buf/len %p/%zu", (void *)ctx->tx_buf, ctx->tx_len);
1c01310c:	1c015d37          	lui	s10,0x1c015
		LOG_ERR("Update exceeds current buffer");
1c013110:	1c015bb7          	lui	s7,0x1c015
						 &ctx->rx_len, dfs);
	} else if (ctx->rx_buf) {
		ctx->rx_buf += dfs * len;
	}

	LOG_DBG("rx buf/len %p/%zu", (void *)ctx->rx_buf, ctx->rx_len);
1c013114:	1c015db7          	lui	s11,0x1c015
1c013118:	0a85                	addi	s5,s5,1 # 90000001 <CONFIG_COMMON_LIBC_MALLOC_ARENA_SIZE+0x90000002>
	while (!spi_puppy_xfer(dev))
1c01311a:	01092403          	lw	s0,16(s2)
 * Except if either RX or TX buf length is 0, returns the length of the other.
 * And if both are 0 then will return 0 and should indicate transfer completion.
 */
static inline size_t spi_context_max_continuous_chunk(struct spi_context *ctx)
{
	if (!ctx->tx_len) {
1c01311e:	4038                	lw	a4,64(s0)
		return ctx->rx_len;
	} else if (!ctx->rx_len) {
1c013120:	443c                	lw	a5,72(s0)
	if (!ctx->tx_len) {
1c013122:	c709                	beqz	a4,1c01312c <spi_puppy_transceive+0x1ec>
	} else if (!ctx->rx_len) {
1c013124:	c399                	beqz	a5,1c01312a <spi_puppy_transceive+0x1ea>
		return ctx->tx_len;
	}

	return MIN(ctx->tx_len, ctx->rx_len);
1c013126:	00f77363          	bgeu	a4,a5,1c01312c <spi_puppy_transceive+0x1ec>
1c01312a:	87ba                	mv	a5,a4
	size_t len_bytes = MIN(chunk_len_bytes, SPI_PUPPY_MAX_BUFFER_SIZE);
1c01312c:	8cbe                	mv	s9,a5
1c01312e:	20000793          	li	a5,512
1c013132:	0197f463          	bgeu	a5,s9,1c01313a <spi_puppy_transceive+0x1fa>
1c013136:	20000c93          	li	s9,512
	const uint8_t *tx_buf = (ctx->tx_buf != NULL) ? ctx->tx_buf : &data->txbuf[0];
1c01313a:	5c50                	lw	a2,60(s0)
1c01313c:	8b32                	mv	s6,a2
1c01313e:	e219                	bnez	a2,1c013144 <spi_puppy_transceive+0x204>
1c013140:	06c40b13          	addi	s6,s0,108
	uint8_t *rx_buf = (ctx->rx_buf != NULL) ? ctx->rx_buf : &data->rxbuf[0];
1c013144:	04442a03          	lw	s4,68(s0)
1c013148:	000a1463          	bnez	s4,1c013150 <spi_puppy_transceive+0x210>
1c01314c:	26c40a13          	addi	s4,s0,620
	if (data->first) {
1c013150:	46c44683          	lbu	a3,1132(s0)
	int i = 0;
1c013154:	4981                	li	s3,0
	if (data->first) {
1c013156:	ce99                	beqz	a3,1c013174 <spi_puppy_transceive+0x234>
		cmd_buf[i++] = SPI_CMD_CFG(data->clkdiv, data->cpol, data->cpha);
1c013158:	4834                	lw	a3,80(s0)
1c01315a:	486c                	lw	a1,84(s0)
		data->first = false;
1c01315c:	46040623          	sb	zero,1132(s0)
		cmd_buf[i++] = SPI_CMD_CFG(data->clkdiv, data->cpol, data->cpha);
1c013160:	06a6                	slli	a3,a3,0x9
1c013162:	05a2                	slli	a1,a1,0x8
1c013164:	8ecd                	or	a3,a3,a1
1c013166:	4c2c                	lw	a1,88(s0)
		cmd_buf[i++] = SPI_CMD_SOT(0);
1c013168:	4989                	li	s3,2
		cmd_buf[i++] = SPI_CMD_CFG(data->clkdiv, data->cpol, data->cpha);
1c01316a:	8ecd                	or	a3,a3,a1
1c01316c:	d036                	sw	a3,32(sp)
		cmd_buf[i++] = SPI_CMD_SOT(0);
1c01316e:	100006b7          	lui	a3,0x10000
1c013172:	d236                	sw	a3,36(sp)
	cmd_buf[i++] = SPI_CMD_FUL(len_bytes, SPI_CMD_1_WORD_PER_TRANSF, 8, data->lsb);
1c013174:	00299593          	slli	a1,s3,0x2
1c013178:	0814                	addi	a3,sp,16
1c01317a:	03058793          	addi	a5,a1,48
1c01317e:	00d785b3          	add	a1,a5,a3
1c013182:	5034                	lw	a3,96(s0)
1c013184:	fffc8513          	addi	a0,s9,-1 # dfffffff <CONFIG_COMMON_LIBC_MALLOC_ARENA_SIZE+0xe0000000>
1c013188:	00198493          	addi	s1,s3,1
1c01318c:	06ea                	slli	a3,a3,0x1a
1c01318e:	8ec9                	or	a3,a3,a0
1c013190:	c0070537          	lui	a0,0xc0070
1c013194:	8ec9                	or	a3,a3,a0
1c013196:	fed5a023          	sw	a3,-32(a1)
	while (!plp_udma_canEnqueue(data->base + UDMA_CHANNEL_TX_OFFSET))
1c01319a:	542c                	lw	a1,104(s0)
	return !(sys_read32(channelBase + UDMA_CHANNEL_CFG_OFFSET) & UDMA_CHANNEL_CFG_SHADOW);
1c01319c:	01858513          	addi	a0,a1,24
	return *(volatile uint32_t *)addr;
1c0131a0:	4114                	lw	a3,0(a0)
1c0131a2:	0206f693          	andi	a3,a3,32
1c0131a6:	feed                	bnez	a3,1c0131a0 <spi_puppy_transceive+0x260>
1c0131a8:	4594                	lw	a3,8(a1)
1c0131aa:	0206f693          	andi	a3,a3,32
	while (!plp_udma_canEnqueue(data->base + UDMA_CHANNEL_RX_OFFSET))
1c0131ae:	feed                	bnez	a3,1c0131a8 <spi_puppy_transceive+0x268>
1c0131b0:	5594                	lw	a3,40(a1)
1c0131b2:	0206f693          	andi	a3,a3,32
	while (!plp_udma_canEnqueue(data->base + UDMA_CHANNEL_CMD_OFFSET))
1c0131b6:	feed                	bnez	a3,1c0131b0 <spi_puppy_transceive+0x270>
	if (!ctx->tx_len) {
1c0131b8:	cb09                	beqz	a4,1c0131ca <spi_puppy_transceive+0x28a>
	if (len > ctx->tx_len) {
1c0131ba:	0b977f63          	bgeu	a4,s9,1c013278 <spi_puppy_transceive+0x338>
		LOG_ERR("Update exceeds current buffer");
1c0131be:	04500593          	li	a1,69
1c0131c2:	440b8513          	addi	a0,s7,1088 # 1c015440 <i2c_puppy_0_config+0x1e0>
1c0131c6:	e14fe0ef          	jal	ra,1c0117da <z_log_minimal_printk>
	if (!ctx->rx_len) {
1c0131ca:	4438                	lw	a4,72(s0)
1c0131cc:	cb09                	beqz	a4,1c0131de <spi_puppy_transceive+0x29e>
	if (len > ctx->rx_len) {
1c0131ce:	0f977463          	bgeu	a4,s9,1c0132b6 <spi_puppy_transceive+0x376>
		LOG_ERR("Update exceeds current buffer");
1c0131d2:	04500593          	li	a1,69
1c0131d6:	440b8513          	addi	a0,s7,1088
1c0131da:	e00fe0ef          	jal	ra,1c0117da <z_log_minimal_printk>
	if (!spi_context_tx_on(ctx) && !spi_context_rx_on(ctx)) {
1c0131de:	4038                	lw	a4,64(s0)
	bool last = false;
1c0131e0:	4681                	li	a3,0
	if (!spi_context_tx_on(ctx) && !spi_context_rx_on(ctx)) {
1c0131e2:	e315                	bnez	a4,1c013206 <spi_puppy_transceive+0x2c6>
1c0131e4:	4438                	lw	a4,72(s0)
1c0131e6:	e305                	bnez	a4,1c013206 <spi_puppy_transceive+0x2c6>
		cmd_buf[i++] = SPI_CMD_EOT(1, data->holdcs);
1c0131e8:	048a                	slli	s1,s1,0x2
1c0131ea:	0818                	addi	a4,sp,16
1c0131ec:	03048793          	addi	a5,s1,48
1c0131f0:	00e784b3          	add	s1,a5,a4
1c0131f4:	5078                	lw	a4,100(s0)
		last = true;
1c0131f6:	4685                	li	a3,1
		cmd_buf[i++] = SPI_CMD_EOT(1, data->holdcs);
1c0131f8:	0706                	slli	a4,a4,0x1
1c0131fa:	01576733          	or	a4,a4,s5
1c0131fe:	fee4a023          	sw	a4,-32(s1)
1c013202:	00298493          	addi	s1,s3,2
	plp_udma_enqueue(data->base + UDMA_CHANNEL_TX_OFFSET, (uint32_t)&tx_buf[0], len_bytes,
1c013206:	5438                	lw	a4,104(s0)
	*(volatile uint32_t *)addr = data;
1c013208:	4641                	li	a2,16
	plp_udma_enqueue(data->base + UDMA_CHANNEL_CMD_OFFSET, (uint32_t)&cmd_buf[0], i * 4,
1c01320a:	048a                	slli	s1,s1,0x2
1c01320c:	01672823          	sw	s6,16(a4)
1c013210:	01972a23          	sw	s9,20(a4)
1c013214:	cf10                	sw	a2,24(a4)
	plp_udma_enqueue(data->base + UDMA_CHANNEL_RX_OFFSET, (uint32_t)&rx_buf[0], len_bytes,
1c013216:	5438                	lw	a4,104(s0)
1c013218:	01472023          	sw	s4,0(a4)
1c01321c:	01972223          	sw	s9,4(a4)
1c013220:	c710                	sw	a2,8(a4)
	plp_udma_enqueue(data->base + UDMA_CHANNEL_CMD_OFFSET, (uint32_t)&cmd_buf[0], i * 4,
1c013222:	543c                	lw	a5,104(s0)
1c013224:	1018                	addi	a4,sp,32
1c013226:	d398                	sw	a4,32(a5)
1c013228:	d3c4                	sw	s1,36(a5)
1c01322a:	4751                	li	a4,20
1c01322c:	d798                	sw	a4,40(a5)
	if (last) {
1c01322e:	ee0686e3          	beqz	a3,1c01311a <spi_puppy_transceive+0x1da>
		while (plp_udma_busy(data->base + UDMA_CHANNEL_TX_OFFSET))
1c013232:	5438                	lw	a4,104(s0)
	return (sys_read32(channelOffset + UDMA_CHANNEL_CFG_OFFSET) & UDMA_CHANNEL_CFG_EN);
1c013234:	01870693          	addi	a3,a4,24
	return *(volatile uint32_t *)addr;
1c013238:	429c                	lw	a5,0(a3)
1c01323a:	8bc1                	andi	a5,a5,16
1c01323c:	fff5                	bnez	a5,1c013238 <spi_puppy_transceive+0x2f8>
1c01323e:	471c                	lw	a5,8(a4)
1c013240:	8bc1                	andi	a5,a5,16
		while (plp_udma_busy(data->base + UDMA_CHANNEL_RX_OFFSET))
1c013242:	fff5                	bnez	a5,1c01323e <spi_puppy_transceive+0x2fe>
1c013244:	571c                	lw	a5,40(a4)
1c013246:	8bc1                	andi	a5,a5,16
		while (plp_udma_busy(data->base + UDMA_CHANNEL_CMD_OFFSET))
1c013248:	fff5                	bnez	a5,1c013244 <spi_puppy_transceive+0x304>
	ctx->sync_status = status;
1c01324a:	020c2423          	sw	zero,40(s8)
1c01324e:	018c0513          	addi	a0,s8,24
1c013252:	2141                	jal	1c0136d2 <z_impl_k_sem_give>
	return 0;
1c013254:	4401                	li	s0,0
1c013256:	b3b9                	j	1c012fa4 <spi_puppy_transceive+0x64>
	ctx->current_tx = tx_bufs ? tx_bufs->buffers : NULL;
1c013258:	0009a783          	lw	a5,0(s3)
1c01325c:	02fc2623          	sw	a5,44(s8)
	ctx->tx_count = ctx->current_tx ? tx_bufs->count : 0;
1c013260:	e20786e3          	beqz	a5,1c01308c <spi_puppy_transceive+0x14c>
1c013264:	0049a783          	lw	a5,4(s3)
1c013268:	b51d                	j	1c01308e <spi_puppy_transceive+0x14e>
	ctx->current_rx = rx_bufs ? rx_bufs->buffers : NULL;
1c01326a:	409c                	lw	a5,0(s1)
1c01326c:	02fc2a23          	sw	a5,52(s8)
	ctx->rx_count = ctx->current_rx ? rx_bufs->count : 0;
1c013270:	e2078fe3          	beqz	a5,1c0130ae <spi_puppy_transceive+0x16e>
1c013274:	40dc                	lw	a5,4(s1)
1c013276:	bd2d                	j	1c0130b0 <spi_puppy_transceive+0x170>
	ctx->tx_len -= len;
1c013278:	41970733          	sub	a4,a4,s9
1c01327c:	c038                	sw	a4,64(s0)
	if (!ctx->tx_len) {
1c01327e:	eb05                	bnez	a4,1c0132ae <spi_puppy_transceive+0x36e>
		++ctx->current_tx;
1c013280:	5458                	lw	a4,44(s0)
			spi_context_get_next_buf(&ctx->current_tx,
1c013282:	04040613          	addi	a2,s0,64
1c013286:	03040593          	addi	a1,s0,48
		++ctx->current_tx;
1c01328a:	0721                	addi	a4,a4,8
1c01328c:	d458                	sw	a4,44(s0)
		--ctx->tx_count;
1c01328e:	5818                	lw	a4,48(s0)
			spi_context_get_next_buf(&ctx->current_tx,
1c013290:	02c40513          	addi	a0,s0,44
		--ctx->tx_count;
1c013294:	177d                	addi	a4,a4,-1
1c013296:	d818                	sw	a4,48(s0)
			spi_context_get_next_buf(&ctx->current_tx,
1c013298:	3149                	jal	1c012f1a <spi_context_get_next_buf.constprop.0>
		ctx->tx_buf = (const uint8_t *)
1c01329a:	dc48                	sw	a0,60(s0)
	LOG_DBG("tx buf/len %p/%zu", (void *)ctx->tx_buf, ctx->tx_len);
1c01329c:	4034                	lw	a3,64(s0)
1c01329e:	5c50                	lw	a2,60(s0)
1c0132a0:	04400593          	li	a1,68
1c0132a4:	464d0513          	addi	a0,s10,1124 # 1c015464 <i2c_puppy_0_config+0x204>
1c0132a8:	d32fe0ef          	jal	ra,1c0117da <z_log_minimal_printk>
1c0132ac:	bf39                	j	1c0131ca <spi_puppy_transceive+0x28a>
	} else if (ctx->tx_buf) {
1c0132ae:	d67d                	beqz	a2,1c01329c <spi_puppy_transceive+0x35c>
		ctx->tx_buf += dfs * len;
1c0132b0:	9666                	add	a2,a2,s9
1c0132b2:	dc50                	sw	a2,60(s0)
1c0132b4:	b7e5                	j	1c01329c <spi_puppy_transceive+0x35c>
	ctx->rx_len -= len;
1c0132b6:	41970733          	sub	a4,a4,s9
1c0132ba:	c438                	sw	a4,72(s0)
	if (!ctx->rx_len) {
1c0132bc:	eb05                	bnez	a4,1c0132ec <spi_puppy_transceive+0x3ac>
		++ctx->current_rx;
1c0132be:	5858                	lw	a4,52(s0)
			spi_context_get_next_buf(&ctx->current_rx,
1c0132c0:	04840613          	addi	a2,s0,72
1c0132c4:	03840593          	addi	a1,s0,56
		++ctx->current_rx;
1c0132c8:	0721                	addi	a4,a4,8
1c0132ca:	d858                	sw	a4,52(s0)
		--ctx->rx_count;
1c0132cc:	5c18                	lw	a4,56(s0)
			spi_context_get_next_buf(&ctx->current_rx,
1c0132ce:	03440513          	addi	a0,s0,52
		--ctx->rx_count;
1c0132d2:	177d                	addi	a4,a4,-1
1c0132d4:	dc18                	sw	a4,56(s0)
			spi_context_get_next_buf(&ctx->current_rx,
1c0132d6:	3191                	jal	1c012f1a <spi_context_get_next_buf.constprop.0>
		ctx->rx_buf = (uint8_t *)
1c0132d8:	c068                	sw	a0,68(s0)
	LOG_DBG("rx buf/len %p/%zu", (void *)ctx->rx_buf, ctx->rx_len);
1c0132da:	4434                	lw	a3,72(s0)
1c0132dc:	4070                	lw	a2,68(s0)
1c0132de:	04400593          	li	a1,68
1c0132e2:	47cd8513          	addi	a0,s11,1148 # 1c01547c <i2c_puppy_0_config+0x21c>
1c0132e6:	cf4fe0ef          	jal	ra,1c0117da <z_log_minimal_printk>
1c0132ea:	bdd5                	j	1c0131de <spi_puppy_transceive+0x29e>
	} else if (ctx->rx_buf) {
1c0132ec:	4078                	lw	a4,68(s0)
1c0132ee:	d775                	beqz	a4,1c0132da <spi_puppy_transceive+0x39a>
		ctx->rx_buf += dfs * len;
1c0132f0:	9766                	add	a4,a4,s9
1c0132f2:	c078                	sw	a4,68(s0)
1c0132f4:	b7dd                	j	1c0132da <spi_puppy_transceive+0x39a>

1c0132f6 <spi_puppy_init>:
static DEVICE_API(spi, spi_puppy_driver_api) = {
	.transceive = spi_puppy_transceive,
};

static int spi_puppy_init(const struct device *dev)
{
1c0132f6:	1141                	addi	sp,sp,-16
1c0132f8:	c606                	sw	ra,12(sp)
1c0132fa:	c422                	sw	s0,8(sp)
	struct spi_puppy_data *data = dev->data;
1c0132fc:	4900                	lw	s0,16(a0)
	int ret;

	memset(&data->txbuf[0], 0, SPI_PUPPY_MAX_BUFFER_SIZE);
1c0132fe:	20000613          	li	a2,512
1c013302:	4581                	li	a1,0
1c013304:	06c40513          	addi	a0,s0,108
1c013308:	224010ef          	jal	ra,1c01452c <memset>

	// Set clock-gating config
	uint32_t cg_conf = plp_udma_cg_get();
	plp_udma_cg_set(cg_conf | BIT(UDMA_SPI0_ID + data->id));
1c01330c:	47042703          	lw	a4,1136(s0)
1c013310:	1a1026b7          	lui	a3,0x1a102
1c013314:	4290                	lw	a2,0(a3)
1c013316:	0705                	addi	a4,a4,1
1c013318:	4785                	li	a5,1
1c01331a:	00e797b3          	sll	a5,a5,a4
1c01331e:	8fd1                	or	a5,a5,a2
	*(volatile uint32_t *)addr = data;
1c013320:	c29c                	sw	a5,0(a3)
	return *(volatile uint32_t *)addr;
1c013322:	4711                	li	a4,4
1c013324:	431c                	lw	a5,0(a4)

	uint32_t int_conf = plp_udma_evtin_get();
	plp_udma_evtin_set(int_conf | ARCHI_UDMA_SPIM_RX_EVT(0) << 16);
1c013326:	000406b7          	lui	a3,0x40
1c01332a:	8fd5                	or	a5,a5,a3
	*(volatile uint32_t *)addr = data;
1c01332c:	c31c                	sw	a5,0(a4)
	if (!k_sem_count_get(&ctx->lock)) {
1c01332e:	481c                	lw	a5,16(s0)
1c013330:	e791                	bnez	a5,1c01333c <spi_puppy_init+0x46>
		ctx->owner = NULL;
1c013332:	00042223          	sw	zero,4(s0)
1c013336:	00840513          	addi	a0,s0,8
1c01333a:	2e61                	jal	1c0136d2 <z_impl_k_sem_give>
		return ret;
	}

	spi_context_unlock_unconditionally(&data->ctx);
	return 0;
}
1c01333c:	40b2                	lw	ra,12(sp)
1c01333e:	4422                	lw	s0,8(sp)
1c013340:	4501                	li	a0,0
1c013342:	0141                	addi	sp,sp,16
1c013344:	8082                	ret

1c013346 <sys_clock_set_timeout>:

/* Weak-linked noop defaults for optional driver interfaces*/

void __weak sys_clock_set_timeout(int32_t ticks, bool idle)
{
}
1c013346:	8082                	ret

1c013348 <do_device_init>:
		k_object_init(dev);
	}
}

int do_device_init(const struct device *dev)
{
1c013348:	1141                	addi	sp,sp,-16
1c01334a:	c422                	sw	s0,8(sp)
1c01334c:	c606                	sw	ra,12(sp)
	int rc = 0;

	if (dev->ops.init != NULL) {
1c01334e:	495c                	lw	a5,20(a0)
{
1c013350:	842a                	mv	s0,a0
	if (dev->ops.init != NULL) {
1c013352:	ef99                	bnez	a5,1c013370 <do_device_init+0x28>
	int rc = 0;
1c013354:	4501                	li	a0,0
			dev->state->init_res = rc;
		}
	}

	/* device initialization has been invoked */
	dev->state->initialized = true;
1c013356:	4458                	lw	a4,12(s0)

	/* here, the value of rc is either 0 or +errno
	 * flip the sign to return a negative value on failure as expected
	 */
	return -rc;
}
1c013358:	40a00533          	neg	a0,a0
	dev->state->initialized = true;
1c01335c:	00174783          	lbu	a5,1(a4)
1c013360:	0017e793          	ori	a5,a5,1
1c013364:	00f700a3          	sb	a5,1(a4)
}
1c013368:	40b2                	lw	ra,12(sp)
1c01336a:	4422                	lw	s0,8(sp)
1c01336c:	0141                	addi	sp,sp,16
1c01336e:	8082                	ret
		rc = dev->ops.init(dev);
1c013370:	9782                	jalr	a5
		if (rc != 0) {
1c013372:	d16d                	beqz	a0,1c013354 <do_device_init+0xc>
			if (rc < 0) {
1c013374:	41f55793          	srai	a5,a0,0x1f
1c013378:	8d3d                	xor	a0,a0,a5
1c01337a:	8d1d                	sub	a0,a0,a5
			if (rc > UINT8_MAX) {
1c01337c:	0ff00793          	li	a5,255
1c013380:	00a7d463          	bge	a5,a0,1c013388 <do_device_init+0x40>
1c013384:	0ff00513          	li	a0,255
			dev->state->init_res = rc;
1c013388:	445c                	lw	a5,12(s0)
1c01338a:	00a78023          	sb	a0,0(a5)
1c01338e:	b7e1                	j	1c013356 <do_device_init+0xe>

1c013390 <z_impl_device_is_ready>:
{
	/*
	 * if an invalid device pointer is passed as argument, this call
	 * reports the `device` as not ready for usage.
	 */
	if (dev == NULL) {
1c013390:	cd01                	beqz	a0,1c0133a8 <z_impl_device_is_ready+0x18>
		return false;
	}

	return dev->state->initialized && (dev->state->init_res == 0U);
1c013392:	4558                	lw	a4,12(a0)
1c013394:	4501                	li	a0,0
1c013396:	00174783          	lbu	a5,1(a4)
1c01339a:	8b85                	andi	a5,a5,1
1c01339c:	c799                	beqz	a5,1c0133aa <z_impl_device_is_ready+0x1a>
1c01339e:	00074503          	lbu	a0,0(a4)
1c0133a2:	00153513          	seqz	a0,a0
1c0133a6:	8082                	ret
		return false;
1c0133a8:	4501                	li	a0,0
}
1c0133aa:	8082                	ret

1c0133ac <arch_system_halt>:
	__asm__ volatile ("csrrc %0, mstatus, %1"
1c0133ac:	300477f3          	csrrci	a5,mstatus,8
	/* TODO: What's the best way to totally halt the system if SMP
	 * is enabled?
	 */

	(void)arch_irq_lock();
	for (;;) {
1c0133b0:	a001                	j	1c0133b0 <arch_system_halt+0x4>

1c0133b2 <k_sys_fatal_error_handler>:
/* LCOV_EXCL_STOP */

/* LCOV_EXCL_START */
__weak void k_sys_fatal_error_handler(unsigned int reason,
				      const struct arch_esf *esf)
{
1c0133b2:	1141                	addi	sp,sp,-16
1c0133b4:	c422                	sw	s0,8(sp)
1c0133b6:	842a                	mv	s0,a0
	ARG_UNUSED(esf);

	LOG_PANIC();
	LOG_ERR("Halting system");
1c0133b8:	1c015537          	lui	a0,0x1c015
1c0133bc:	4c050513          	addi	a0,a0,1216 # 1c0154c0 <i2c_puppy_0_config+0x260>
1c0133c0:	04500593          	li	a1,69
{
1c0133c4:	c606                	sw	ra,12(sp)
	LOG_ERR("Halting system");
1c0133c6:	c14fe0ef          	jal	ra,1c0117da <z_log_minimal_printk>
	arch_system_halt(reason);
1c0133ca:	8522                	mv	a0,s0
1c0133cc:	37c5                	jal	1c0133ac <arch_system_halt>

1c0133ce <z_fatal_error>:
	arch_system_halt(reason);
}
/* LCOV_EXCL_STOP */

void z_fatal_error(unsigned int reason, const struct arch_esf *esf)
{
1c0133ce:	1101                	addi	sp,sp,-32
1c0133d0:	cc22                	sw	s0,24(sp)
1c0133d2:	c64e                	sw	s3,12(sp)
1c0133d4:	ce06                	sw	ra,28(sp)
1c0133d6:	ca26                	sw	s1,20(sp)
1c0133d8:	c84a                	sw	s2,16(sp)
1c0133da:	842a                	mv	s0,a0
1c0133dc:	89ae                	mv	s3,a1
1c0133de:	30047973          	csrrci	s2,mstatus,8
	/* We can't allow this code to be preempted, but don't need to
	 * synchronize between CPUs, so an arch-layer lock is
	 * appropriate.
	 */
	unsigned int key = arch_irq_lock();
	struct k_thread *thread = IS_ENABLED(CONFIG_MULTITHREADING) ?
1c0133e2:	1c0167b7          	lui	a5,0x1c016
1c0133e6:	4cc78713          	addi	a4,a5,1228 # 1c0164cc <_kernel>
1c0133ea:	4691                	li	a3,4
1c0133ec:	4704                	lw	s1,8(a4)
	switch (reason) {
1c0133ee:	06a6ea63          	bltu	a3,a0,1c013462 <z_fatal_error+0x94>
1c0133f2:	1c0157b7          	lui	a5,0x1c015
1c0133f6:	00251693          	slli	a3,a0,0x2
1c0133fa:	58478793          	addi	a5,a5,1412 # 1c015584 <CSWTCH.406>
1c0133fe:	97b6                	add	a5,a5,a3
1c013400:	4394                	lw	a3,0(a5)
			_current : NULL;

	/* twister looks for the "ZEPHYR FATAL ERROR" string, don't
	 * change it without also updating twister
	 */
	LOG_ERR(">>> ZEPHYR FATAL ERROR %d: %s on CPU %d", reason,
1c013402:	01074703          	lbu	a4,16(a4)
1c013406:	1c015537          	lui	a0,0x1c015
1c01340a:	8622                	mv	a2,s0
1c01340c:	04500593          	li	a1,69
1c013410:	4e450513          	addi	a0,a0,1252 # 1c0154e4 <i2c_puppy_0_config+0x284>
1c013414:	bc6fe0ef          	jal	ra,1c0117da <z_log_minimal_printk>
	const char *thread_name = (thread != NULL) ? k_thread_name_get(thread) : NULL;
1c013418:	c881                	beqz	s1,1c013428 <z_fatal_error+0x5a>
1c01341a:	8526                	mv	a0,s1
1c01341c:	2eb1                	jal	1c013778 <k_thread_name_get>
1c01341e:	86aa                	mv	a3,a0
	if ((thread_name == NULL) || (thread_name[0] == '\0')) {
1c013420:	c501                	beqz	a0,1c013428 <z_fatal_error+0x5a>
1c013422:	00054783          	lbu	a5,0(a0)
1c013426:	e789                	bnez	a5,1c013430 <z_fatal_error+0x62>
		thread_name = "unknown";
1c013428:	1c0156b7          	lui	a3,0x1c015
1c01342c:	e3068693          	addi	a3,a3,-464 # 1c014e30 <__clz_tab+0x4fc>
		LOG_ERR("Fault during interrupt handling\n");
	}
#endif /* CONFIG_ARCH_HAS_NESTED_EXCEPTION_DETECTION */

	if (IS_ENABLED(CONFIG_MULTITHREADING)) {
		LOG_ERR("Current thread: %p (%s)", thread, thread_name_get(thread));
1c013430:	1c015537          	lui	a0,0x1c015
1c013434:	8626                	mv	a2,s1
1c013436:	04500593          	li	a1,69
1c01343a:	51450513          	addi	a0,a0,1300 # 1c015514 <i2c_puppy_0_config+0x2b4>
1c01343e:	b9cfe0ef          	jal	ra,1c0117da <z_log_minimal_printk>
	}

	coredump(reason, esf, thread);

	k_sys_fatal_error_handler(reason, esf);
1c013442:	85ce                	mv	a1,s3
1c013444:	8522                	mv	a0,s0
1c013446:	37b5                	jal	1c0133b2 <k_sys_fatal_error_handler>
			  : "r" (key & MSTATUS_IEN)
1c013448:	00897913          	andi	s2,s2,8
	__asm__ volatile ("csrs mstatus, %0"
1c01344c:	30092073          	csrs	mstatus,s2
	arch_irq_unlock(key);

	if (IS_ENABLED(CONFIG_MULTITHREADING)) {
		k_thread_abort(thread);
	}
}
1c013450:	4462                	lw	s0,24(sp)
1c013452:	40f2                	lw	ra,28(sp)
1c013454:	4942                	lw	s2,16(sp)
1c013456:	49b2                	lw	s3,12(sp)
	z_impl_k_thread_abort(thread);
1c013458:	8526                	mv	a0,s1
1c01345a:	44d2                	lw	s1,20(sp)
1c01345c:	6105                	addi	sp,sp,32
1c01345e:	44d0006f          	j	1c0140aa <z_impl_k_thread_abort>
	struct k_thread *thread = IS_ENABLED(CONFIG_MULTITHREADING) ?
1c013462:	1c0156b7          	lui	a3,0x1c015
1c013466:	4d468693          	addi	a3,a3,1236 # 1c0154d4 <i2c_puppy_0_config+0x274>
1c01346a:	bf61                	j	1c013402 <z_fatal_error+0x34>

1c01346c <z_sys_init_run_level>:
		/* End marker */
		__init_end,
	};
	const struct init_entry *entry;

	for (entry = levels[level]; entry < levels[level+1]; entry++) {
1c01346c:	00251713          	slli	a4,a0,0x2
1c013470:	1c0157b7          	lui	a5,0x1c015
1c013474:	0505                	addi	a0,a0,1
1c013476:	5a078793          	addi	a5,a5,1440 # 1c0155a0 <levels.0>
1c01347a:	050a                	slli	a0,a0,0x2
{
1c01347c:	1141                	addi	sp,sp,-16
	for (entry = levels[level]; entry < levels[level+1]; entry++) {
1c01347e:	973e                	add	a4,a4,a5
1c013480:	97aa                	add	a5,a5,a0
{
1c013482:	c422                	sw	s0,8(sp)
1c013484:	c226                	sw	s1,4(sp)
	for (entry = levels[level]; entry < levels[level+1]; entry++) {
1c013486:	4300                	lw	s0,0(a4)
1c013488:	4384                	lw	s1,0(a5)
{
1c01348a:	c606                	sw	ra,12(sp)
	for (entry = levels[level]; entry < levels[level+1]; entry++) {
1c01348c:	00946763          	bltu	s0,s1,1c01349a <z_sys_init_run_level+0x2e>
		} else {
			result = entry->init_fn();
		}
		sys_trace_sys_init_exit(entry, level, result);
	}
}
1c013490:	40b2                	lw	ra,12(sp)
1c013492:	4422                	lw	s0,8(sp)
1c013494:	4492                	lw	s1,4(sp)
1c013496:	0141                	addi	sp,sp,16
1c013498:	8082                	ret
		const struct device *dev = entry->dev;
1c01349a:	4048                	lw	a0,4(s0)
		if (dev != NULL) {
1c01349c:	c901                	beqz	a0,1c0134ac <z_sys_init_run_level+0x40>
			if ((dev->flags & DEVICE_FLAG_INIT_DEFERRED) == 0U) {
1c01349e:	01c54783          	lbu	a5,28(a0)
1c0134a2:	8b85                	andi	a5,a5,1
1c0134a4:	e391                	bnez	a5,1c0134a8 <z_sys_init_run_level+0x3c>
				result = do_device_init(dev);
1c0134a6:	354d                	jal	1c013348 <do_device_init>
	for (entry = levels[level]; entry < levels[level+1]; entry++) {
1c0134a8:	0421                	addi	s0,s0,8
1c0134aa:	b7cd                	j	1c01348c <z_sys_init_run_level+0x20>
			result = entry->init_fn();
1c0134ac:	401c                	lw	a5,0(s0)
1c0134ae:	9782                	jalr	a5
1c0134b0:	bfe5                	j	1c0134a8 <z_sys_init_run_level+0x3c>

1c0134b2 <bg_thread_main>:
 * This routine completes kernel initialization by invoking the remaining
 * init functions, then invokes application's main() routine.
 */
__boot_func
static void bg_thread_main(void *unused1, void *unused2, void *unused3)
{
1c0134b2:	7179                	addi	sp,sp,-48
	 * may perform memory management tasks (except for
	 * k_mem_map_phys_bare() which is allowed at any time)
	 */
	z_mem_manage_init();
#endif /* CONFIG_MMU */
	z_sys_post_kernel = true;
1c0134b4:	1c0167b7          	lui	a5,0x1c016
1c0134b8:	4705                	li	a4,1

#if CONFIG_IRQ_OFFLOAD
	arch_irq_offload_init();
#endif
	z_sys_init_run_level(INIT_LEVEL_POST_KERNEL);
1c0134ba:	450d                	li	a0,3
	z_sys_post_kernel = true;
1c0134bc:	1ce78423          	sb	a4,456(a5) # 1c0161c8 <z_sys_post_kernel>
{
1c0134c0:	d606                	sw	ra,44(sp)
1c0134c2:	d422                	sw	s0,40(sp)
1c0134c4:	d226                	sw	s1,36(sp)
1c0134c6:	d04a                	sw	s2,32(sp)
1c0134c8:	ce4e                	sw	s3,28(sp)
	z_sys_init_run_level(INIT_LEVEL_POST_KERNEL);
1c0134ca:	374d                	jal	1c01346c <z_sys_init_run_level>
	board_late_init_hook();

#if defined(CONFIG_STACK_POINTER_RANDOM) && (CONFIG_STACK_POINTER_RANDOM != 0)
	z_stack_adjust_initialized = 1;
#endif /* CONFIG_STACK_POINTER_RANDOM */
	boot_banner();
1c0134cc:	030010ef          	jal	ra,1c0144fc <boot_banner>
#ifdef CONFIG_STATIC_INIT_GNU
	z_static_init_gnu();
#endif /* CONFIG_STATIC_INIT_GNU */

	/* Final init level before app starts */
	z_sys_init_run_level(INIT_LEVEL_APPLICATION);
1c0134d0:	4511                	li	a0,4
1c0134d2:	3f69                	jal	1c01346c <z_sys_init_run_level>
	STRUCT_SECTION_FOREACH(_static_thread_data, thread_data) {
1c0134d4:	1c0157b7          	lui	a5,0x1c015
1c0134d8:	1c015937          	lui	s2,0x1c015
1c0134dc:	84878413          	addi	s0,a5,-1976 # 1c014848 <spi_nor_api>
1c0134e0:	84878493          	addi	s1,a5,-1976
1c0134e4:	84890913          	addi	s2,s2,-1976 # 1c014848 <spi_nor_api>
1c0134e8:	03246e63          	bltu	s0,s2,1c013524 <bg_thread_main+0x72>
	STRUCT_SECTION_FOREACH(_static_thread_data, thread_data) {
1c0134ec:	8426                	mv	s0,s1
	k_sched_lock();
1c0134ee:	76e000ef          	jal	ra,1c013c5c <k_sched_lock>
		if (!K_TIMEOUT_EQ(init_delay, K_FOREVER)) {
1c0134f2:	54fd                	li	s1,-1

extern void z_thread_timeout(struct _timeout *timeout);

static inline k_ticks_t z_add_thread_timeout(struct k_thread *thread, k_timeout_t ticks)
{
	return z_add_timeout(&thread->base.timeout, z_thread_timeout, ticks);
1c0134f4:	1c0149b7          	lui	s3,0x1c014
	STRUCT_SECTION_FOREACH(_static_thread_data, thread_data) {
1c0134f8:	05246a63          	bltu	s0,s2,1c01354c <bg_thread_main+0x9a>
	k_sched_unlock();
1c0134fc:	780000ef          	jal	ra,1c013c7c <k_sched_unlock>
	char **argv = prepare_main_args(&argc);
	(void)main(argc, argv);
#else
	extern int main(void);

	(void)main();
1c013500:	f3dfd0ef          	jal	ra,1c01143c <main>
 * Exceptions raised by this thread may be recoverable.
 * (This is the default tag for a thread.)
 */
static inline void z_thread_essential_clear(struct k_thread *thread)
{
	thread->base.user_options &= ~K_ESSENTIAL;
1c013504:	1c0167b7          	lui	a5,0x1c016
1c013508:	26078793          	addi	a5,a5,608 # 1c016260 <z_main_thread>
1c01350c:	00c7c703          	lbu	a4,12(a5)
1c013510:	9b79                	andi	a4,a4,-2
1c013512:	00e78623          	sb	a4,12(a5)
	/* Dump coverage data once the main() has exited. */
	gcov_coverage_dump();
#elif defined(CONFIG_COVERAGE_SEMIHOST)
	gcov_coverage_semihost();
#endif /* CONFIG_COVERAGE_DUMP */
} /* LCOV_EXCL_LINE ... because we just dumped final coverage data */
1c013516:	50b2                	lw	ra,44(sp)
1c013518:	5422                	lw	s0,40(sp)
1c01351a:	5492                	lw	s1,36(sp)
1c01351c:	5902                	lw	s2,32(sp)
1c01351e:	49f2                	lw	s3,28(sp)
1c013520:	6145                	addi	sp,sp,48
1c013522:	8082                	ret
		z_setup_new_thread(
1c013524:	505c                	lw	a5,36(s0)
1c013526:	c23e                	sw	a5,4(sp)
1c013528:	501c                	lw	a5,32(s0)
1c01352a:	c03e                	sw	a5,0(sp)
1c01352c:	485c                	lw	a5,20(s0)
1c01352e:	01c42883          	lw	a7,28(s0)
1c013532:	01842803          	lw	a6,24(s0)
1c013536:	4818                	lw	a4,16(s0)
1c013538:	4454                	lw	a3,12(s0)
1c01353a:	4410                	lw	a2,8(s0)
1c01353c:	404c                	lw	a1,4(s0)
1c01353e:	4008                	lw	a0,0(s0)
1c013540:	2c35                	jal	1c01377c <z_setup_new_thread>
		thread_data->init_thread->init_data = thread_data;
1c013542:	401c                	lw	a5,0(s0)
1c013544:	d7a0                	sw	s0,104(a5)
	STRUCT_SECTION_FOREACH(_static_thread_data, thread_data) {
1c013546:	03040413          	addi	s0,s0,48
1c01354a:	bf79                	j	1c0134e8 <bg_thread_main+0x36>
		k_timeout_t init_delay = Z_THREAD_INIT_DELAY(thread_data);
1c01354c:	5410                	lw	a2,40(s0)
1c01354e:	5454                	lw	a3,44(s0)
		if (!K_TIMEOUT_EQ(init_delay, K_FOREVER)) {
1c013550:	00961463          	bne	a2,s1,1c013558 <bg_thread_main+0xa6>
1c013554:	00968863          	beq	a3,s1,1c013564 <bg_thread_main+0xb2>
	if (K_TIMEOUT_EQ(delay, K_NO_WAIT)) {
1c013558:	00d667b3          	or	a5,a2,a3
			thread_schedule_new(thread_data->init_thread,
1c01355c:	4008                	lw	a0,0(s0)
1c01355e:	e791                	bnez	a5,1c01356a <bg_thread_main+0xb8>
	z_impl_k_wakeup(thread);
1c013560:	1b3000ef          	jal	ra,1c013f12 <z_impl_k_wakeup>
	STRUCT_SECTION_FOREACH(_static_thread_data, thread_data) {
1c013564:	03040413          	addi	s0,s0,48
1c013568:	bf41                	j	1c0134f8 <bg_thread_main+0x46>
1c01356a:	ba098593          	addi	a1,s3,-1120 # 1c013ba0 <z_thread_timeout>
1c01356e:	0561                	addi	a0,a0,24
1c013570:	50f000ef          	jal	ra,1c01427e <z_add_timeout>
1c013574:	bfc5                	j	1c013564 <bg_thread_main+0xb2>

1c013576 <z_init_cpu>:
	thread->base.is_idle = 1U;
#endif /* CONFIG_SMP */
}

void z_init_cpu(int id)
{
1c013576:	1101                	addi	sp,sp,-32
1c013578:	c84a                	sw	s2,16(sp)
	struct k_thread *thread = &z_idle_threads[i];
1c01357a:	09000913          	li	s2,144
1c01357e:	03250933          	mul	s2,a0,s2
{
1c013582:	ca26                	sw	s1,20(sp)
			  stack_size, idle, &_kernel.cpus[i],
1c013584:	44d1                	li	s1,20
	struct k_thread *thread = &z_idle_threads[i];
1c013586:	1c0167b7          	lui	a5,0x1c016
1c01358a:	1d078793          	addi	a5,a5,464 # 1c0161d0 <z_idle_threads>
	z_setup_new_thread(thread, stack,
1c01358e:	1c0175b7          	lui	a1,0x1c017
{
1c013592:	cc22                	sw	s0,24(sp)
	z_setup_new_thread(thread, stack,
1c013594:	1c0136b7          	lui	a3,0x1c013
{
1c013598:	842a                	mv	s0,a0
	z_setup_new_thread(thread, stack,
1c01359a:	cf058593          	addi	a1,a1,-784 # 1c016cf0 <z_idle_stacks>
			  stack_size, idle, &_kernel.cpus[i],
1c01359e:	029504b3          	mul	s1,a0,s1
	struct k_thread *thread = &z_idle_threads[i];
1c0135a2:	993e                	add	s2,s2,a5
			  stack_size, idle, &_kernel.cpus[i],
1c0135a4:	1c0167b7          	lui	a5,0x1c016
1c0135a8:	4cc78793          	addi	a5,a5,1228 # 1c0164cc <_kernel>
	k_thread_stack_t *stack = z_idle_stacks[i];
1c0135ac:	0526                	slli	a0,a0,0x9
	z_setup_new_thread(thread, stack,
1c0135ae:	c202                	sw	zero,4(sp)
1c0135b0:	95aa                	add	a1,a1,a0
1c0135b2:	48bd                	li	a7,15
1c0135b4:	854a                	mv	a0,s2
1c0135b6:	4801                	li	a6,0
			  stack_size, idle, &_kernel.cpus[i],
1c0135b8:	94be                	add	s1,s1,a5
	z_setup_new_thread(thread, stack,
1c0135ba:	4785                	li	a5,1
1c0135bc:	c03e                	sw	a5,0(sp)
1c0135be:	8726                	mv	a4,s1
1c0135c0:	4781                	li	a5,0
1c0135c2:	6ac68693          	addi	a3,a3,1708 # 1c0136ac <idle>
1c0135c6:	20000613          	li	a2,512
{
1c0135ca:	ce06                	sw	ra,28(sp)
	z_setup_new_thread(thread, stack,
1c0135cc:	2a45                	jal	1c01377c <z_setup_new_thread>
	thread->base.thread_state &= ~_THREAD_SLEEPING;
1c0135ce:	00d94783          	lbu	a5,13(s2)
	init_idle_thread(id);
	_kernel.cpus[id].idle_thread = &z_idle_threads[id];
	_kernel.cpus[id].id = id;
1c0135d2:	00848823          	sb	s0,16(s1)
	_kernel.cpus[id].irq_stack =
		(K_KERNEL_STACK_BUFFER(z_interrupt_stacks[id]) +
1c0135d6:	0405                	addi	s0,s0,1
1c0135d8:	9bed                	andi	a5,a5,-5
1c0135da:	00f906a3          	sb	a5,13(s2)
1c0135de:	1c0167b7          	lui	a5,0x1c016
1c0135e2:	042e                	slli	s0,s0,0xb
1c0135e4:	4f078793          	addi	a5,a5,1264 # 1c0164f0 <z_interrupt_stacks>
1c0135e8:	943e                	add	s0,s0,a5
	_kernel.cpus[id].idle_thread = &z_idle_threads[id];
1c0135ea:	0124a623          	sw	s2,12(s1)
	_kernel.cpus[id].irq_stack =
1c0135ee:	c0c0                	sw	s0,4(s1)
#endif

#ifdef CONFIG_SCHED_IPI_SUPPORTED
	sys_dlist_init(&_kernel.cpus[id].ipi_workq);
#endif
}
1c0135f0:	40f2                	lw	ra,28(sp)
1c0135f2:	4462                	lw	s0,24(sp)
1c0135f4:	44d2                	lw	s1,20(sp)
1c0135f6:	4942                	lw	s2,16(sp)
1c0135f8:	6105                	addi	sp,sp,32
1c0135fa:	8082                	ret

1c0135fc <z_cstart>:
 * @return Does not return
 */
__boot_func
FUNC_NO_STACK_PROTECTOR
FUNC_NORETURN void z_cstart(void)
{
1c0135fc:	7179                	addi	sp,sp,-48
	/* gcov hook needed to get the coverage report.*/
	gcov_static_init();

	/* initialize early init calls */
	z_sys_init_run_level(INIT_LEVEL_EARLY);
1c0135fe:	4501                	li	a0,0
{
1c013600:	d606                	sw	ra,44(sp)
1c013602:	d422                	sw	s0,40(sp)
1c013604:	d226                	sw	s1,36(sp)
1c013606:	d04a                	sw	s2,32(sp)
1c013608:	ce4e                	sw	s3,28(sp)
	z_sys_init_run_level(INIT_LEVEL_EARLY);
1c01360a:	358d                	jal	1c01346c <z_sys_init_run_level>
	__asm__ volatile ("li tp, 0");
1c01360c:	4201                	li	tp,0
	arch_kernel_init();

	LOG_CORE_INIT();

#if defined(CONFIG_MULTITHREADING)
	z_dummy_thread_init(&_thread_dummy);
1c01360e:	1c016537          	lui	a0,0x1c016
1c013612:	2f050513          	addi	a0,a0,752 # 1c0162f0 <_thread_dummy>
1c013616:	2435                	jal	1c013842 <z_dummy_thread_init>
	soc_early_init_hook();

	board_early_init_hook();

	/* perform basic hardware initialization */
	z_sys_init_run_level(INIT_LEVEL_PRE_KERNEL_1);
1c013618:	4505                	li	a0,1
1c01361a:	3d89                	jal	1c01346c <z_sys_init_run_level>
#if defined(CONFIG_SMP)
	arch_smp_init();
#endif
	z_sys_init_run_level(INIT_LEVEL_PRE_KERNEL_2);
1c01361c:	4509                	li	a0,2
1c01361e:	35b9                	jal	1c01346c <z_sys_init_run_level>
	z_sched_init();
1c013620:	2719                	jal	1c013d26 <z_sched_init>
	stack_ptr = z_setup_new_thread(&z_main_thread, z_main_stack,
1c013622:	1c0157b7          	lui	a5,0x1c015
1c013626:	59878793          	addi	a5,a5,1432 # 1c015598 <CSWTCH.406+0x14>
	_kernel.ready_q.cache = &z_main_thread;
1c01362a:	1c016437          	lui	s0,0x1c016
	stack_ptr = z_setup_new_thread(&z_main_thread, z_main_stack,
1c01362e:	c23e                	sw	a5,4(sp)
	_kernel.ready_q.cache = &z_main_thread;
1c013630:	1c0164b7          	lui	s1,0x1c016
	stack_ptr = z_setup_new_thread(&z_main_thread, z_main_stack,
1c013634:	4785                	li	a5,1
1c013636:	1c0136b7          	lui	a3,0x1c013
1c01363a:	1c0175b7          	lui	a1,0x1c017
	_kernel.ready_q.cache = &z_main_thread;
1c01363e:	26040913          	addi	s2,s0,608 # 1c016260 <z_main_thread>
	stack_ptr = z_setup_new_thread(&z_main_thread, z_main_stack,
1c013642:	4881                	li	a7,0
1c013644:	4801                	li	a6,0
1c013646:	4701                	li	a4,0
1c013648:	4b268693          	addi	a3,a3,1202 # 1c0134b2 <bg_thread_main>
1c01364c:	40000613          	li	a2,1024
1c013650:	ef058593          	addi	a1,a1,-272 # 1c016ef0 <z_main_stack>
1c013654:	c03e                	sw	a5,0(sp)
	_kernel.ready_q.cache = &z_main_thread;
1c013656:	4cc48493          	addi	s1,s1,1228 # 1c0164cc <_kernel>
	stack_ptr = z_setup_new_thread(&z_main_thread, z_main_stack,
1c01365a:	4781                	li	a5,0
1c01365c:	26040513          	addi	a0,s0,608
	_kernel.ready_q.cache = &z_main_thread;
1c013660:	0124aa23          	sw	s2,20(s1)
	stack_ptr = z_setup_new_thread(&z_main_thread, z_main_stack,
1c013664:	2a21                	jal	1c01377c <z_setup_new_thread>
1c013666:	00d94783          	lbu	a5,13(s2)
	z_ready_thread(&z_main_thread);
1c01366a:	26040513          	addi	a0,s0,608
1c01366e:	9bed                	andi	a5,a5,-5
1c013670:	00f906a3          	sb	a5,13(s2)
1c013674:	29d9                	jal	1c013b4a <z_ready_thread>
	z_init_cpu(0);
1c013676:	4501                	li	a0,0
1c013678:	3dfd                	jal	1c013576 <z_init_cpu>
	__asm__ volatile ("csrrc %0, mstatus, %1"
1c01367a:	30047973          	csrrci	s2,mstatus,8
		 _current->base.thread_state & (_THREAD_DUMMY | _THREAD_DEAD),
		 "Context switching while holding lock!");
# endif /* CONFIG_ARM64 */
#endif /* CONFIG_SPIN_VALIDATE */

	old_thread = _current;
1c01367e:	0084a983          	lw	s3,8(s1)

	z_check_stack_sentinel();

	old_thread->swap_retval = -EAGAIN;
1c013682:	57d5                	li	a5,-11
1c013684:	08f9a023          	sw	a5,128(s3)
1c013688:	300477f3          	csrrci	a5,mstatus,8
	}
	if (!is_spinlock || lock != &_sched_spinlock) {
		(void) k_spin_lock(&_sched_spinlock);
	}

	new_thread = z_swap_next_thread();
1c01368c:	2d9d                	jal	1c013d02 <z_swap_next_thread>

	if (new_thread != old_thread) {
1c01368e:	00a98b63          	beq	s3,a0,1c0136a4 <z_cstart+0xa8>
1c013692:	842a                	mv	s0,a0
			z_smp_release_global_lock(new_thread);
		}
#endif /* CONFIG_SMP */
		z_thread_mark_switched_out();
		z_sched_switch_spin(new_thread);
		z_current_thread_set(new_thread);
1c013694:	c488                	sw	a0,8(s1)

#ifdef CONFIG_TIMESLICING
		z_reset_time_slice(new_thread);
1c013696:	28b000ef          	jal	ra,1c014120 <z_reset_time_slice>
	z_riscv_switch(new, old);
1c01369a:	08442503          	lw	a0,132(s0)
1c01369e:	85ce                	mv	a1,s3
1c0136a0:	bf4fd0ef          	jal	ra,1c010a94 <z_riscv_switch>
			  : "r" (key & MSTATUS_IEN)
1c0136a4:	00897913          	andi	s2,s2,8
	__asm__ volatile ("csrs mstatus, %0"
1c0136a8:	30092073          	csrs	mstatus,s2

1c0136ac <idle>:
#include <wait_q.h>

LOG_MODULE_DECLARE(os, CONFIG_KERNEL_LOG_LEVEL);

void idle(void *unused1, void *unused2, void *unused3)
{
1c0136ac:	1141                	addi	sp,sp,-16
1c0136ae:	c606                	sw	ra,12(sp)
	__asm__ volatile ("csrrc %0, mstatus, %1"
1c0136b0:	300477f3          	csrrci	a5,mstatus,8
 * @note In some architectures, before returning, the function unmasks interrupts
 * unconditionally.
 */
static inline void k_cpu_idle(void)
{
	arch_cpu_idle();
1c0136b4:	968fe0ef          	jal	ra,1c01181c <arch_cpu_idle>
1c0136b8:	bfe5                	j	1c0136b0 <idle+0x4>

1c0136ba <z_impl_k_sem_init>:
static struct k_obj_type obj_type_sem;
#endif /* CONFIG_OBJ_CORE_SEM */

int z_impl_k_sem_init(struct k_sem *sem, unsigned int initial_count,
		      unsigned int limit)
{
1c0136ba:	87aa                	mv	a5,a0
	 * Limit cannot be zero and count cannot be greater than limit
	 */
	CHECKIF(limit == 0U || initial_count > limit) {
		SYS_PORT_TRACING_OBJ_FUNC(k_sem, init, sem, -EINVAL);

		return -EINVAL;
1c0136bc:	5529                	li	a0,-22
	CHECKIF(limit == 0U || initial_count > limit) {
1c0136be:	ca09                	beqz	a2,1c0136d0 <z_impl_k_sem_init+0x16>
1c0136c0:	00b66863          	bltu	a2,a1,1c0136d0 <z_impl_k_sem_init+0x16>
	}

	sem->count = initial_count;
1c0136c4:	c78c                	sw	a1,8(a5)
	sem->limit = limit;
1c0136c6:	c7d0                	sw	a2,12(a5)
 * @param list the doubly-linked list
 */

static inline void sys_dlist_init(sys_dlist_t *list)
{
	list->head = (sys_dnode_t *)list;
1c0136c8:	c39c                	sw	a5,0(a5)
	list->tail = (sys_dnode_t *)list;
1c0136ca:	c3dc                	sw	a5,4(a5)

#ifdef CONFIG_OBJ_CORE_SEM
	k_obj_core_init_and_link(K_OBJ_CORE(sem), &obj_type_sem);
#endif /* CONFIG_OBJ_CORE_SEM */

	return 0;
1c0136cc:	4501                	li	a0,0
1c0136ce:	8082                	ret
}
1c0136d0:	8082                	ret

1c0136d2 <z_impl_k_sem_give>:
	return false;
#endif /* CONFIG_POLL */
}

void z_impl_k_sem_give(struct k_sem *sem)
{
1c0136d2:	1101                	addi	sp,sp,-32
1c0136d4:	ce06                	sw	ra,28(sp)
1c0136d6:	cc22                	sw	s0,24(sp)
1c0136d8:	300475f3          	csrrci	a1,mstatus,8
 * @return true if empty, false otherwise
 */

static inline bool sys_dlist_is_empty(const sys_dlist_t *list)
{
	return list->head == list;
1c0136dc:	4100                	lw	s0,0(a0)
 * @return a pointer to the head element, NULL if list is empty
 */

static inline sys_dnode_t *sys_dlist_peek_head(const sys_dlist_t *list)
{
	return sys_dlist_is_empty(list) ? NULL : list->head;
1c0136de:	04850463          	beq	a0,s0,1c013726 <z_impl_k_sem_give+0x54>
	__ASSERT_EVAL(, int key = arch_irq_lock(); arch_irq_unlock(key),
		      !arch_irq_unlocked(key), "");

	LOCK_SCHED_SPINLOCK {
		thread = _priq_wait_best(&wait_q->waitq);
		if (unlikely(thread != NULL)) {
1c0136e2:	c031                	beqz	s0,1c013726 <z_impl_k_sem_give+0x54>
 * @param node the node to remove
 */

static inline void sys_dlist_remove(sys_dnode_t *node)
{
	sys_dnode_t *const prev = node->prev;
1c0136e4:	4058                	lw	a4,4(s0)
	sys_dnode_t *const next = node->next;
1c0136e6:	401c                	lw	a5,0(s0)
}

static inline void z_abort_thread_timeout(struct k_thread *thread)
{
	z_abort_timeout(&thread->base.timeout);
1c0136e8:	01840513          	addi	a0,s0,24
1c0136ec:	c62e                	sw	a1,12(sp)

	prev->next = next;
1c0136ee:	c31c                	sw	a5,0(a4)
	next->prev = prev;
1c0136f0:	c3d8                	sw	a4,4(a5)
	thread->base.thread_state &= ~_THREAD_PENDING;
1c0136f2:	00d44783          	lbu	a5,13(s0)
	node->next = NULL;
1c0136f6:	00042023          	sw	zero,0(s0)
	node->prev = NULL;
1c0136fa:	00042223          	sw	zero,4(s0)
1c0136fe:	9bf5                	andi	a5,a5,-3
1c013700:	00f406a3          	sb	a5,13(s0)
	thread->base.pended_on = NULL;
1c013704:	00042423          	sw	zero,8(s0)
1c013708:	4d1000ef          	jal	ra,1c0143d8 <z_abort_timeout>

	thread = z_unpend_first_thread(&sem->wait_q);

	if (unlikely(thread != NULL)) {
		arch_thread_return_value_set(thread, 0);
		z_ready_thread(thread);
1c01370c:	8522                	mv	a0,s0
 * z_swap() is in use it's a simple inline provided by the kernel.
 */
static ALWAYS_INLINE void
arch_thread_return_value_set(struct k_thread *thread, unsigned int value)
{
	thread->swap_retval = value;
1c01370e:	08042023          	sw	zero,128(s0)
1c013712:	2925                	jal	1c013b4a <z_ready_thread>
	} else {
		k_spin_unlock(&lock, key);
	}

	SYS_PORT_TRACING_OBJ_FUNC_EXIT(k_sem, give, sem);
}
1c013714:	4462                	lw	s0,24(sp)
		z_reschedule(&lock, key);
1c013716:	45b2                	lw	a1,12(sp)
}
1c013718:	40f2                	lw	ra,28(sp)
		z_reschedule(&lock, key);
1c01371a:	1c016537          	lui	a0,0x1c016
1c01371e:	4ec50513          	addi	a0,a0,1260 # 1c0164ec <_sched_spinlock>
}
1c013722:	6105                	addi	sp,sp,32
		z_reschedule(&lock, key);
1c013724:	a1d1                	j	1c013be8 <z_reschedule>
		sem->count += (sem->count != sem->limit) ? 1U : 0U;
1c013726:	4518                	lw	a4,8(a0)
1c013728:	455c                	lw	a5,12(a0)
	__asm__ volatile ("csrs mstatus, %0"
1c01372a:	89a1                	andi	a1,a1,8
1c01372c:	8f99                	sub	a5,a5,a4
1c01372e:	00f037b3          	snez	a5,a5
1c013732:	97ba                	add	a5,a5,a4
1c013734:	c51c                	sw	a5,8(a0)
1c013736:	3005a073          	csrs	mstatus,a1
}
1c01373a:	40f2                	lw	ra,28(sp)
1c01373c:	4462                	lw	s0,24(sp)
1c01373e:	6105                	addi	sp,sp,32
1c013740:	8082                	ret

1c013742 <z_impl_k_sem_take>:
}
#include <zephyr/syscalls/k_sem_give_mrsh.c>
#endif /* CONFIG_USERSPACE */

int z_impl_k_sem_take(struct k_sem *sem, k_timeout_t timeout)
{
1c013742:	86ae                	mv	a3,a1
1c013744:	8732                	mv	a4,a2
	__asm__ volatile ("csrrc %0, mstatus, %1"
1c013746:	300475f3          	csrrci	a1,mstatus,8

	k_spinlock_key_t key = k_spin_lock(&lock);

	SYS_PORT_TRACING_OBJ_FUNC_ENTER(k_sem, take, sem, timeout);

	if (likely(sem->count > 0U)) {
1c01374a:	451c                	lw	a5,8(a0)
1c01374c:	cb81                	beqz	a5,1c01375c <z_impl_k_sem_take+0x1a>
		sem->count--;
1c01374e:	17fd                	addi	a5,a5,-1
1c013750:	c51c                	sw	a5,8(a0)
	__asm__ volatile ("csrs mstatus, %0"
1c013752:	89a1                	andi	a1,a1,8
1c013754:	3005a073          	csrs	mstatus,a1
		k_spin_unlock(&lock, key);
		ret = 0;
1c013758:	4501                	li	a0,0
		goto out;
1c01375a:	8082                	ret
	}

	if (K_TIMEOUT_EQ(timeout, K_NO_WAIT)) {
1c01375c:	00c6e7b3          	or	a5,a3,a2
1c013760:	e791                	bnez	a5,1c01376c <z_impl_k_sem_take+0x2a>
1c013762:	89a1                	andi	a1,a1,8
1c013764:	3005a073          	csrs	mstatus,a1
		k_spin_unlock(&lock, key);
		ret = -EBUSY;
1c013768:	5541                	li	a0,-16

out:
	SYS_PORT_TRACING_OBJ_FUNC_EXIT(k_sem, take, sem, timeout, ret);

	return ret;
}
1c01376a:	8082                	ret
	ret = z_pend_curr(&lock, key, &sem->wait_q, timeout);
1c01376c:	862a                	mv	a2,a0
1c01376e:	1c016537          	lui	a0,0x1c016
1c013772:	4ec50513          	addi	a0,a0,1260 # 1c0164ec <_sched_spinlock>
1c013776:	a905                	j	1c013ba6 <z_pend_curr>

1c013778 <k_thread_name_get>:
	return (const char *)thread->name;
#else
	ARG_UNUSED(thread);
	return NULL;
#endif /* CONFIG_THREAD_NAME */
}
1c013778:	4501                	li	a0,0
1c01377a:	8082                	ret

1c01377c <z_setup_new_thread>:
char *z_setup_new_thread(struct k_thread *new_thread,
			 k_thread_stack_t *stack, size_t stack_size,
			 k_thread_entry_t entry,
			 void *p1, void *p2, void *p3,
			 int prio, uint32_t options, const char *name)
{
1c01377c:	7179                	addi	sp,sp,-48
1c01377e:	d606                	sw	ra,44(sp)
1c013780:	d422                	sw	s0,40(sp)
1c013782:	d226                	sw	s1,36(sp)
1c013784:	d04a                	sw	s2,32(sp)
1c013786:	ce4e                	sw	s3,28(sp)
1c013788:	cc52                	sw	s4,24(sp)
1c01378a:	ca56                	sw	s5,20(sp)
1c01378c:	c85a                	sw	s6,16(sp)
1c01378e:	c65e                	sw	s7,12(sp)
1c013790:	8b3e                	mv	s6,a5
	SYS_DLIST_FOR_EACH_CONTAINER(&((wq)->waitq), thread_ptr, \
				     base.qnode_dlist)

static inline void z_waitq_init(_wait_q_t *w)
{
	sys_dlist_init(&w->waitq);
1c013792:	06c50793          	addi	a5,a0,108
	list->head = (sys_dnode_t *)list;
1c013796:	d57c                	sw	a5,108(a0)
	list->tail = (sys_dnode_t *)list;
1c013798:	d93c                	sw	a5,112(a0)
void z_init_thread_base(struct _thread_base *thread_base, int priority,
		       uint32_t initial_state, unsigned int options)
{
	/* k_q_node is initialized upon first insertion in a list */
	thread_base->pended_on = NULL;
	thread_base->user_options = (uint8_t)options;
1c01379a:	57c2                	lw	a5,48(sp)
		stack_obj_size = K_KERNEL_STACK_LEN(stack_size);
1c01379c:	00f60493          	addi	s1,a2,15
1c0137a0:	98c1                	andi	s1,s1,-16
	thread_base->user_options = (uint8_t)options;
1c0137a2:	00f50623          	sb	a5,12(a0)
	thread_base->thread_state = (uint8_t)initial_state;
1c0137a6:	4791                	li	a5,4
{
1c0137a8:	842a                	mv	s0,a0
	stack_ptr = (char *)stack + stack_obj_size;
1c0137aa:	009589b3          	add	s3,a1,s1
{
1c0137ae:	8a36                	mv	s4,a3
	thread_base->thread_state = (uint8_t)initial_state;
1c0137b0:	00f506a3          	sb	a5,13(a0)
	LOG_DBG("stack %p for thread %p: obj_size=%zu buf_start=%p "
1c0137b4:	86aa                	mv	a3,a0

	thread_base->prio = priority;
1c0137b6:	01150723          	sb	a7,14(a0)
	thread_base->pended_on = NULL;
1c0137ba:	00052423          	sw	zero,8(a0)

	thread_base->sched_locked = 0U;
1c0137be:	000507a3          	sb	zero,15(a0)
	node->next = NULL;
1c0137c2:	00052c23          	sw	zero,24(a0)
	node->prev = NULL;
1c0137c6:	00052e23          	sw	zero,28(a0)
	LOG_DBG("stack %p for thread %p: obj_size=%zu buf_start=%p "
1c0137ca:	1c015537          	lui	a0,0x1c015
{
1c0137ce:	892e                	mv	s2,a1
	LOG_DBG("stack %p for thread %p: obj_size=%zu buf_start=%p "
1c0137d0:	88ce                	mv	a7,s3
1c0137d2:	87ae                	mv	a5,a1
1c0137d4:	862e                	mv	a2,a1
{
1c0137d6:	8aba                	mv	s5,a4
1c0137d8:	8bc2                	mv	s7,a6
	LOG_DBG("stack %p for thread %p: obj_size=%zu buf_start=%p "
1c0137da:	8726                	mv	a4,s1
1c0137dc:	8826                	mv	a6,s1
1c0137de:	04400593          	li	a1,68
1c0137e2:	5bc50513          	addi	a0,a0,1468 # 1c0155bc <levels.0+0x1c>
1c0137e6:	ff5fd0ef          	jal	ra,1c0117da <z_log_minimal_printk>
	delta += arch_tls_stack_setup(new_thread, stack_ptr);
1c0137ea:	85ce                	mv	a1,s3
1c0137ec:	8522                	mv	a0,s0
1c0137ee:	aa2fe0ef          	jal	ra,1c011a90 <arch_tls_stack_setup>
	delta = ROUND_UP(delta, ARCH_STACK_PTR_ALIGN);
1c0137f2:	053d                	addi	a0,a0,15
1c0137f4:	9941                	andi	a0,a0,-16
	stack_ptr -= delta;
1c0137f6:	40a989b3          	sub	s3,s3,a0
	new_thread->stack_info.start = (uintptr_t)stack_buf_start;
1c0137fa:	07242a23          	sw	s2,116(s0)
	new_thread->stack_info.size = stack_buf_size;
1c0137fe:	dc24                	sw	s1,120(s0)
	new_thread->stack_info.delta = delta;
1c013800:	dc68                	sw	a0,124(s0)
	arch_new_thread(new_thread, stack, stack_ptr, entry, p1, p2, p3);
1c013802:	87da                	mv	a5,s6
1c013804:	8522                	mv	a0,s0
1c013806:	885e                	mv	a6,s7
1c013808:	8756                	mv	a4,s5
1c01380a:	86d2                	mv	a3,s4
1c01380c:	864e                	mv	a2,s3
1c01380e:	85ca                	mv	a1,s2
1c013810:	a2efe0ef          	jal	ra,1c011a3e <arch_new_thread>
	new_thread->resource_pool = _current->resource_pool;
1c013814:	1c0167b7          	lui	a5,0x1c016
1c013818:	4cc78793          	addi	a5,a5,1228 # 1c0164cc <_kernel>
1c01381c:	479c                	lw	a5,8(a5)
	new_thread->init_data = NULL;
1c01381e:	06042423          	sw	zero,104(s0)
}
1c013822:	854e                	mv	a0,s3
	new_thread->resource_pool = _current->resource_pool;
1c013824:	0887a783          	lw	a5,136(a5)
1c013828:	08f42423          	sw	a5,136(s0)
}
1c01382c:	50b2                	lw	ra,44(sp)
1c01382e:	5422                	lw	s0,40(sp)
1c013830:	5492                	lw	s1,36(sp)
1c013832:	5902                	lw	s2,32(sp)
1c013834:	49f2                	lw	s3,28(sp)
1c013836:	4a62                	lw	s4,24(sp)
1c013838:	4ad2                	lw	s5,20(sp)
1c01383a:	4b42                	lw	s6,16(sp)
1c01383c:	4bb2                	lw	s7,12(sp)
1c01383e:	6145                	addi	sp,sp,48
1c013840:	8082                	ret

1c013842 <z_dummy_thread_init>:
{
	dummy_thread->base.thread_state = _THREAD_DUMMY;
#ifdef CONFIG_SCHED_CPU_MASK
	dummy_thread->base.cpu_mask = -1;
#endif /* CONFIG_SCHED_CPU_MASK */
	dummy_thread->base.user_options = K_ESSENTIAL;
1c013842:	10100793          	li	a5,257
1c013846:	00f51623          	sh	a5,12(a0)

#ifdef CONFIG_TIMESLICE_PER_THREAD
	dummy_thread->base.slice_ticks = 0;
#endif /* CONFIG_TIMESLICE_PER_THREAD */

	z_current_thread_set(dummy_thread);
1c01384a:	1c0167b7          	lui	a5,0x1c016
	dummy_thread->stack_info.start = 0U;
1c01384e:	06052a23          	sw	zero,116(a0)
	dummy_thread->stack_info.size = 0U;
1c013852:	06052c23          	sw	zero,120(a0)
	dummy_thread->resource_pool = NULL;
1c013856:	08052423          	sw	zero,136(a0)
	z_current_thread_set(dummy_thread);
1c01385a:	4ca7aa23          	sw	a0,1236(a5) # 1c0164d4 <_kernel+0x8>
}
1c01385e:	8082                	ret

1c013860 <sys_dlist_remove>:
	sys_dnode_t *const prev = node->prev;
1c013860:	4158                	lw	a4,4(a0)
	sys_dnode_t *const next = node->next;
1c013862:	411c                	lw	a5,0(a0)
	prev->next = next;
1c013864:	c31c                	sw	a5,0(a4)
	next->prev = prev;
1c013866:	c3d8                	sw	a4,4(a5)
	node->next = NULL;
1c013868:	00052023          	sw	zero,0(a0)
	node->prev = NULL;
1c01386c:	00052223          	sw	zero,4(a0)
	sys_dnode_init(node);
}
1c013870:	8082                	ret

1c013872 <unpend_thread_no_timeout>:
{
1c013872:	1141                	addi	sp,sp,-16
1c013874:	c422                	sw	s0,8(sp)
1c013876:	c606                	sw	ra,12(sp)
1c013878:	842a                	mv	s0,a0

static ALWAYS_INLINE void z_priq_simple_remove(sys_dlist_t *pq, struct k_thread *thread)
{
	ARG_UNUSED(pq);

	sys_dlist_remove(&thread->base.qnode_dlist);
1c01387a:	37dd                	jal	1c013860 <sys_dlist_remove>
1c01387c:	00d44783          	lbu	a5,13(s0)
	thread->base.pended_on = NULL;
1c013880:	00042423          	sw	zero,8(s0)
1c013884:	9bf5                	andi	a5,a5,-3
1c013886:	00f406a3          	sb	a5,13(s0)
}
1c01388a:	40b2                	lw	ra,12(sp)
1c01388c:	4422                	lw	s0,8(sp)
1c01388e:	0141                	addi	sp,sp,16
1c013890:	8082                	ret

1c013892 <ready_thread>:
	return (thread->base.thread_state & state) != 0U;
1c013892:	00d54783          	lbu	a5,13(a0)
#endif /* CONFIG_KERNEL_COHERENCE */

	/* If thread is queued already, do not try and added it to the
	 * run queue again
	 */
	if (!z_is_thread_queued(thread) && z_is_thread_ready(thread)) {
1c013896:	01879713          	slli	a4,a5,0x18
1c01389a:	8761                	srai	a4,a4,0x18
1c01389c:	08074e63          	bltz	a4,1c013938 <ready_thread+0xa6>
1c0138a0:	01f7f713          	andi	a4,a5,31
1c0138a4:	eb51                	bnez	a4,1c013938 <ready_thread+0xa6>
{
1c0138a6:	1141                	addi	sp,sp,-16
1c0138a8:	c422                	sw	s0,8(sp)
1c0138aa:	c606                	sw	ra,12(sp)
1c0138ac:	c226                	sw	s1,4(sp)
	thread->base.thread_state |= _THREAD_QUEUED;
1c0138ae:	f807e793          	ori	a5,a5,-128
	return list->head == list;
1c0138b2:	1c016437          	lui	s0,0x1c016
1c0138b6:	00f506a3          	sb	a5,13(a0)
1c0138ba:	4cc40793          	addi	a5,s0,1228 # 1c0164cc <_kernel>
1c0138be:	4f9c                	lw	a5,24(a5)
1c0138c0:	1c016737          	lui	a4,0x1c016
1c0138c4:	4cc40413          	addi	s0,s0,1228
1c0138c8:	4e470713          	addi	a4,a4,1252 # 1c0164e4 <_kernel+0x18>
1c0138cc:	4c54                	lw	a3,28(s0)
	return sys_dlist_is_empty(list) ? NULL : list->head;
1c0138ce:	00e79a63          	bne	a5,a4,1c0138e2 <ready_thread+0x50>
	node->next = list;
1c0138d2:	c118                	sw	a4,0(a0)
	node->prev = tail;
1c0138d4:	c154                	sw	a3,4(a0)
	tail->next = node;
1c0138d6:	c288                	sw	a0,0(a3)
	list->tail = node;
1c0138d8:	cc48                	sw	a0,28(s0)
}
1c0138da:	a015                	j	1c0138fe <ready_thread+0x6c>
	return (node == list->tail) ? NULL : node->next;
1c0138dc:	fef68be3          	beq	a3,a5,1c0138d2 <ready_thread+0x40>
1c0138e0:	439c                	lw	a5,0(a5)
	SYS_DLIST_FOR_EACH_CONTAINER(pq, t, base.qnode_dlist) {
1c0138e2:	dbe5                	beqz	a5,1c0138d2 <ready_thread+0x40>
	int32_t b1 = thread_1->base.prio;
1c0138e4:	00e50603          	lb	a2,14(a0)
	int32_t b2 = thread_2->base.prio;
1c0138e8:	00e78583          	lb	a1,14(a5)
	if (b1 != b2) {
1c0138ec:	feb608e3          	beq	a2,a1,1c0138dc <ready_thread+0x4a>
		if (z_sched_prio_cmp(thread, t) > 0) {
1c0138f0:	feb656e3          	bge	a2,a1,1c0138dc <ready_thread+0x4a>
	sys_dnode_t *const prev = successor->prev;
1c0138f4:	43d4                	lw	a3,4(a5)
	node->next = successor;
1c0138f6:	c11c                	sw	a5,0(a0)
	node->prev = prev;
1c0138f8:	c154                	sw	a3,4(a0)
	prev->next = node;
1c0138fa:	c288                	sw	a0,0(a3)
	successor->prev = node;
1c0138fc:	c3c8                	sw	a0,4(a5)
	return list->head == list;
1c0138fe:	4c04                	lw	s1,24(s0)
	return sys_dlist_is_empty(list) ? NULL : list->head;
1c013900:	00e48363          	beq	s1,a4,1c013906 <ready_thread+0x74>
	return (thread != NULL) ? thread : _current_cpu->idle_thread;
1c013904:	e091                	bnez	s1,1c013908 <ready_thread+0x76>
1c013906:	4444                	lw	s1,12(s0)
	}

	__ASSERT(_current != NULL, "");

	/* Or if we're pended/suspended/dummy (duh) */
	if (z_is_thread_prevented_from_running(_current)) {
1c013908:	441c                	lw	a5,8(s0)
1c01390a:	00d7c703          	lbu	a4,13(a5)
1c01390e:	8b7d                	andi	a4,a4,31
1c013910:	ef09                	bnez	a4,1c01392a <ready_thread+0x98>
	}

	/* Otherwise we have to be running a preemptible thread or
	 * switching to a metairq
	 */
	if (thread_is_preemptible(_current) || thread_is_metairq(thread)) {
1c013912:	00e7d683          	lhu	a3,14(a5)
1c013916:	07f00713          	li	a4,127
1c01391a:	00d77863          	bgeu	a4,a3,1c01392a <ready_thread+0x98>
		_kernel.ready_q.cache = _current;
1c01391e:	c85c                	sw	a5,20(s0)
		queue_thread(thread);
		update_cache(0);

		flag_ipi(ipi_mask_create(thread));
	}
}
1c013920:	40b2                	lw	ra,12(sp)
1c013922:	4422                	lw	s0,8(sp)
1c013924:	4492                	lw	s1,4(sp)
1c013926:	0141                	addi	sp,sp,16
1c013928:	8082                	ret
		if (thread != _current) {
1c01392a:	00978563          	beq	a5,s1,1c013934 <ready_thread+0xa2>
			z_reset_time_slice(thread);
1c01392e:	8526                	mv	a0,s1
1c013930:	7f0000ef          	jal	ra,1c014120 <z_reset_time_slice>
		_kernel.ready_q.cache = thread;
1c013934:	c844                	sw	s1,20(s0)
}
1c013936:	b7ed                	j	1c013920 <ready_thread+0x8e>
1c013938:	8082                	ret

1c01393a <unready_thread>:
}
#include <zephyr/syscalls/k_thread_resume_mrsh.c>
#endif /* CONFIG_USERSPACE */

static void unready_thread(struct k_thread *thread)
{
1c01393a:	1141                	addi	sp,sp,-16
1c01393c:	c04a                	sw	s2,0(sp)
1c01393e:	c606                	sw	ra,12(sp)
1c013940:	c422                	sw	s0,8(sp)
1c013942:	c226                	sw	s1,4(sp)
	return (thread->base.thread_state & state) != 0U;
1c013944:	00d54783          	lbu	a5,13(a0)
1c013948:	892a                	mv	s2,a0
	if (z_is_thread_queued(thread)) {
1c01394a:	01879713          	slli	a4,a5,0x18
1c01394e:	8761                	srai	a4,a4,0x18
1c013950:	00075763          	bgez	a4,1c01395e <unready_thread+0x24>
	thread->base.thread_state &= ~_THREAD_QUEUED;
1c013954:	07f7f793          	andi	a5,a5,127
1c013958:	00f506a3          	sb	a5,13(a0)
	sys_dlist_remove(&thread->base.qnode_dlist);
1c01395c:	3711                	jal	1c013860 <sys_dlist_remove>
		dequeue_thread(thread);
	}
	update_cache(thread == _current);
1c01395e:	1c0164b7          	lui	s1,0x1c016
1c013962:	4cc48713          	addi	a4,s1,1228 # 1c0164cc <_kernel>
	return list->head == list;
1c013966:	4f00                	lw	s0,24(a4)
1c013968:	471c                	lw	a5,8(a4)
	return sys_dlist_is_empty(list) ? NULL : list->head;
1c01396a:	1c016737          	lui	a4,0x1c016
1c01396e:	4e470713          	addi	a4,a4,1252 # 1c0164e4 <_kernel+0x18>
1c013972:	4cc48493          	addi	s1,s1,1228
1c013976:	00e40363          	beq	s0,a4,1c01397c <unready_thread+0x42>
	return (thread != NULL) ? thread : _current_cpu->idle_thread;
1c01397a:	e011                	bnez	s0,1c01397e <unready_thread+0x44>
1c01397c:	44c0                	lw	s0,12(s1)
	if (preempt_ok != 0) {
1c01397e:	01278c63          	beq	a5,s2,1c013996 <unready_thread+0x5c>
	if (z_is_thread_prevented_from_running(_current)) {
1c013982:	00d7c703          	lbu	a4,13(a5)
1c013986:	8b7d                	andi	a4,a4,31
1c013988:	e719                	bnez	a4,1c013996 <unready_thread+0x5c>
	if (thread_is_preemptible(_current) || thread_is_metairq(thread)) {
1c01398a:	00e7d683          	lhu	a3,14(a5)
1c01398e:	07f00713          	li	a4,127
1c013992:	00d76863          	bltu	a4,a3,1c0139a2 <unready_thread+0x68>
		if (thread != _current) {
1c013996:	00878563          	beq	a5,s0,1c0139a0 <unready_thread+0x66>
			z_reset_time_slice(thread);
1c01399a:	8522                	mv	a0,s0
1c01399c:	784000ef          	jal	ra,1c014120 <z_reset_time_slice>
		_kernel.ready_q.cache = thread;
1c0139a0:	87a2                	mv	a5,s0
		_kernel.ready_q.cache = _current;
1c0139a2:	c8dc                	sw	a5,20(s1)
}
1c0139a4:	40b2                	lw	ra,12(sp)
1c0139a6:	4422                	lw	s0,8(sp)
1c0139a8:	4492                	lw	s1,4(sp)
1c0139aa:	4902                	lw	s2,0(sp)
1c0139ac:	0141                	addi	sp,sp,16
1c0139ae:	8082                	ret

1c0139b0 <add_thread_timeout>:
	}
}

static void add_thread_timeout(struct k_thread *thread, k_timeout_t timeout)
{
	if (!K_TIMEOUT_EQ(timeout, K_FOREVER)) {
1c0139b0:	57fd                	li	a5,-1
{
1c0139b2:	86b2                	mv	a3,a2
	if (!K_TIMEOUT_EQ(timeout, K_FOREVER)) {
1c0139b4:	00f59463          	bne	a1,a5,1c0139bc <add_thread_timeout+0xc>
1c0139b8:	00b60a63          	beq	a2,a1,1c0139cc <add_thread_timeout+0x1c>
	return z_add_timeout(&thread->base.timeout, z_thread_timeout, ticks);
1c0139bc:	862e                	mv	a2,a1
1c0139be:	1c0145b7          	lui	a1,0x1c014
1c0139c2:	ba058593          	addi	a1,a1,-1120 # 1c013ba0 <z_thread_timeout>
1c0139c6:	0561                	addi	a0,a0,24
1c0139c8:	0b70006f          	j	1c01427e <z_add_timeout>
		z_add_thread_timeout(thread, timeout);
	}
}
1c0139cc:	8082                	ret

1c0139ce <z_swap>:
{
	return do_swap(key, NULL, false);
}

static inline int z_swap(struct k_spinlock *lock, k_spinlock_key_t key)
{
1c0139ce:	1101                	addi	sp,sp,-32
1c0139d0:	cc22                	sw	s0,24(sp)
	old_thread = _current;
1c0139d2:	1c016437          	lui	s0,0x1c016
{
1c0139d6:	ca26                	sw	s1,20(sp)
	old_thread = _current;
1c0139d8:	4cc40793          	addi	a5,s0,1228 # 1c0164cc <_kernel>
{
1c0139dc:	ce06                	sw	ra,28(sp)
1c0139de:	c84a                	sw	s2,16(sp)
1c0139e0:	84ae                	mv	s1,a1
	old_thread = _current;
1c0139e2:	478c                	lw	a1,8(a5)
	old_thread->swap_retval = -EAGAIN;
1c0139e4:	57d5                	li	a5,-11
1c0139e6:	4cc40413          	addi	s0,s0,1228
1c0139ea:	08f5a023          	sw	a5,128(a1)
	if (!is_spinlock || lock != &_sched_spinlock) {
1c0139ee:	1c0167b7          	lui	a5,0x1c016
1c0139f2:	4ec78793          	addi	a5,a5,1260 # 1c0164ec <_sched_spinlock>
1c0139f6:	00a78463          	beq	a5,a0,1c0139fe <z_swap+0x30>
	__asm__ volatile ("csrrc %0, mstatus, %1"
1c0139fa:	300477f3          	csrrci	a5,mstatus,8
		 */
		signal_pending_ipi();
	}
	return ret;
#else
	return _kernel.ready_q.cache;
1c0139fe:	01442903          	lw	s2,20(s0)
	if (new_thread != old_thread) {
1c013a02:	c62e                	sw	a1,12(sp)
1c013a04:	01258b63          	beq	a1,s2,1c013a1a <z_swap+0x4c>
		z_reset_time_slice(new_thread);
1c013a08:	854a                	mv	a0,s2
		z_current_thread_set(new_thread);
1c013a0a:	01242423          	sw	s2,8(s0)
		z_reset_time_slice(new_thread);
1c013a0e:	2f09                	jal	1c014120 <z_reset_time_slice>
1c013a10:	45b2                	lw	a1,12(sp)
1c013a12:	08492503          	lw	a0,132(s2)
1c013a16:	87efd0ef          	jal	ra,1c010a94 <z_riscv_switch>
			  : "r" (key & MSTATUS_IEN)
1c013a1a:	88a1                	andi	s1,s1,8
	__asm__ volatile ("csrs mstatus, %0"
1c013a1c:	3004a073          	csrs	mstatus,s1
	return _current->swap_retval;
1c013a20:	441c                	lw	a5,8(s0)
	return do_swap(key.key, lock, true);
}
1c013a22:	40f2                	lw	ra,28(sp)
1c013a24:	4462                	lw	s0,24(sp)
1c013a26:	0807a503          	lw	a0,128(a5)
1c013a2a:	44d2                	lw	s1,20(sp)
1c013a2c:	4942                	lw	s2,16(sp)
1c013a2e:	6105                	addi	sp,sp,32
1c013a30:	8082                	ret

1c013a32 <add_to_waitq_locked>:
{
1c013a32:	1141                	addi	sp,sp,-16
1c013a34:	c422                	sw	s0,8(sp)
1c013a36:	c226                	sw	s1,4(sp)
1c013a38:	842a                	mv	s0,a0
1c013a3a:	c606                	sw	ra,12(sp)
1c013a3c:	84ae                	mv	s1,a1
	unready_thread(thread);
1c013a3e:	3df5                	jal	1c01393a <unready_thread>
	thread->base.thread_state |= _THREAD_PENDING;
1c013a40:	00d44783          	lbu	a5,13(s0)
1c013a44:	0027e793          	ori	a5,a5,2
1c013a48:	00f406a3          	sb	a5,13(s0)
	if (wait_q != NULL) {
1c013a4c:	cc8d                	beqz	s1,1c013a86 <add_to_waitq_locked+0x54>
		thread->base.pended_on = wait_q;
1c013a4e:	c404                	sw	s1,8(s0)
	return list->head == list;
1c013a50:	409c                	lw	a5,0(s1)
	return sys_dlist_is_empty(list) ? NULL : list->head;
1c013a52:	00f49c63          	bne	s1,a5,1c013a6a <add_to_waitq_locked+0x38>
	sys_dnode_t *const tail = list->tail;
1c013a56:	40dc                	lw	a5,4(s1)
	node->next = list;
1c013a58:	c004                	sw	s1,0(s0)
	node->prev = tail;
1c013a5a:	c05c                	sw	a5,4(s0)
	tail->next = node;
1c013a5c:	c380                	sw	s0,0(a5)
	list->tail = node;
1c013a5e:	c0c0                	sw	s0,4(s1)
}
1c013a60:	a01d                	j	1c013a86 <add_to_waitq_locked+0x54>
	return (node == list->tail) ? NULL : node->next;
1c013a62:	40d8                	lw	a4,4(s1)
1c013a64:	fef709e3          	beq	a4,a5,1c013a56 <add_to_waitq_locked+0x24>
1c013a68:	439c                	lw	a5,0(a5)
	SYS_DLIST_FOR_EACH_CONTAINER(pq, t, base.qnode_dlist) {
1c013a6a:	d7f5                	beqz	a5,1c013a56 <add_to_waitq_locked+0x24>
	int32_t b1 = thread_1->base.prio;
1c013a6c:	00e40703          	lb	a4,14(s0)
	int32_t b2 = thread_2->base.prio;
1c013a70:	00e78683          	lb	a3,14(a5)
	if (b1 != b2) {
1c013a74:	fed707e3          	beq	a4,a3,1c013a62 <add_to_waitq_locked+0x30>
		if (z_sched_prio_cmp(thread, t) > 0) {
1c013a78:	fed755e3          	bge	a4,a3,1c013a62 <add_to_waitq_locked+0x30>
	sys_dnode_t *const prev = successor->prev;
1c013a7c:	43d8                	lw	a4,4(a5)
	node->next = successor;
1c013a7e:	c01c                	sw	a5,0(s0)
	node->prev = prev;
1c013a80:	c058                	sw	a4,4(s0)
	prev->next = node;
1c013a82:	c300                	sw	s0,0(a4)
	successor->prev = node;
1c013a84:	c3c0                	sw	s0,4(a5)
1c013a86:	40b2                	lw	ra,12(sp)
1c013a88:	4422                	lw	s0,8(sp)
1c013a8a:	4492                	lw	s1,4(sp)
1c013a8c:	0141                	addi	sp,sp,16
1c013a8e:	8082                	ret

1c013a90 <move_thread_to_end_of_prio_q>:
{
1c013a90:	1141                	addi	sp,sp,-16
1c013a92:	c422                	sw	s0,8(sp)
1c013a94:	c606                	sw	ra,12(sp)
1c013a96:	c226                	sw	s1,4(sp)
1c013a98:	c04a                	sw	s2,0(sp)
	return (thread->base.thread_state & state) != 0U;
1c013a9a:	00d54783          	lbu	a5,13(a0)
1c013a9e:	842a                	mv	s0,a0
	if (z_is_thread_queued(thread)) {
1c013aa0:	01879713          	slli	a4,a5,0x18
1c013aa4:	8761                	srai	a4,a4,0x18
1c013aa6:	00075763          	bgez	a4,1c013ab4 <move_thread_to_end_of_prio_q+0x24>
	thread->base.thread_state &= ~_THREAD_QUEUED;
1c013aaa:	07f7f793          	andi	a5,a5,127
1c013aae:	00f506a3          	sb	a5,13(a0)
	sys_dlist_remove(&thread->base.qnode_dlist);
1c013ab2:	337d                	jal	1c013860 <sys_dlist_remove>
	thread->base.thread_state |= _THREAD_QUEUED;
1c013ab4:	00d44783          	lbu	a5,13(s0)
	return list->head == list;
1c013ab8:	1c0164b7          	lui	s1,0x1c016
1c013abc:	1c016737          	lui	a4,0x1c016
1c013ac0:	f807e793          	ori	a5,a5,-128
1c013ac4:	00f406a3          	sb	a5,13(s0)
1c013ac8:	4cc48793          	addi	a5,s1,1228 # 1c0164cc <_kernel>
1c013acc:	4f9c                	lw	a5,24(a5)
1c013ace:	4cc48493          	addi	s1,s1,1228
1c013ad2:	4e470713          	addi	a4,a4,1252 # 1c0164e4 <_kernel+0x18>
1c013ad6:	4cd4                	lw	a3,28(s1)
	return sys_dlist_is_empty(list) ? NULL : list->head;
1c013ad8:	00e79a63          	bne	a5,a4,1c013aec <move_thread_to_end_of_prio_q+0x5c>
	node->next = list;
1c013adc:	c018                	sw	a4,0(s0)
	node->prev = tail;
1c013ade:	c054                	sw	a3,4(s0)
	tail->next = node;
1c013ae0:	c280                	sw	s0,0(a3)
	list->tail = node;
1c013ae2:	ccc0                	sw	s0,28(s1)
}
1c013ae4:	a015                	j	1c013b08 <move_thread_to_end_of_prio_q+0x78>
	return (node == list->tail) ? NULL : node->next;
1c013ae6:	fef68be3          	beq	a3,a5,1c013adc <move_thread_to_end_of_prio_q+0x4c>
1c013aea:	439c                	lw	a5,0(a5)
	SYS_DLIST_FOR_EACH_CONTAINER(pq, t, base.qnode_dlist) {
1c013aec:	dbe5                	beqz	a5,1c013adc <move_thread_to_end_of_prio_q+0x4c>
	int32_t b1 = thread_1->base.prio;
1c013aee:	00e40603          	lb	a2,14(s0)
	int32_t b2 = thread_2->base.prio;
1c013af2:	00e78583          	lb	a1,14(a5)
	if (b1 != b2) {
1c013af6:	feb608e3          	beq	a2,a1,1c013ae6 <move_thread_to_end_of_prio_q+0x56>
		if (z_sched_prio_cmp(thread, t) > 0) {
1c013afa:	feb656e3          	bge	a2,a1,1c013ae6 <move_thread_to_end_of_prio_q+0x56>
	sys_dnode_t *const prev = successor->prev;
1c013afe:	43d4                	lw	a3,4(a5)
	node->next = successor;
1c013b00:	c01c                	sw	a5,0(s0)
	node->prev = prev;
1c013b02:	c054                	sw	a3,4(s0)
	prev->next = node;
1c013b04:	c280                	sw	s0,0(a3)
	successor->prev = node;
1c013b06:	c3c0                	sw	s0,4(a5)
	return list->head == list;
1c013b08:	0184a903          	lw	s2,24(s1)
	update_cache(thread == _current);
1c013b0c:	449c                	lw	a5,8(s1)
	return sys_dlist_is_empty(list) ? NULL : list->head;
1c013b0e:	00e90463          	beq	s2,a4,1c013b16 <move_thread_to_end_of_prio_q+0x86>
	return (thread != NULL) ? thread : _current_cpu->idle_thread;
1c013b12:	00091463          	bnez	s2,1c013b1a <move_thread_to_end_of_prio_q+0x8a>
1c013b16:	00c4a903          	lw	s2,12(s1)
	if (preempt_ok != 0) {
1c013b1a:	00878c63          	beq	a5,s0,1c013b32 <move_thread_to_end_of_prio_q+0xa2>
	if (z_is_thread_prevented_from_running(_current)) {
1c013b1e:	00d7c703          	lbu	a4,13(a5)
1c013b22:	8b7d                	andi	a4,a4,31
1c013b24:	e719                	bnez	a4,1c013b32 <move_thread_to_end_of_prio_q+0xa2>
	if (thread_is_preemptible(_current) || thread_is_metairq(thread)) {
1c013b26:	00e7d683          	lhu	a3,14(a5)
1c013b2a:	07f00713          	li	a4,127
1c013b2e:	00d76763          	bltu	a4,a3,1c013b3c <move_thread_to_end_of_prio_q+0xac>
		if (thread != _current) {
1c013b32:	01278463          	beq	a5,s2,1c013b3a <move_thread_to_end_of_prio_q+0xaa>
			z_reset_time_slice(thread);
1c013b36:	854a                	mv	a0,s2
1c013b38:	23e5                	jal	1c014120 <z_reset_time_slice>
		_kernel.ready_q.cache = thread;
1c013b3a:	87ca                	mv	a5,s2
		_kernel.ready_q.cache = _current;
1c013b3c:	c8dc                	sw	a5,20(s1)
}
1c013b3e:	40b2                	lw	ra,12(sp)
1c013b40:	4422                	lw	s0,8(sp)
1c013b42:	4492                	lw	s1,4(sp)
1c013b44:	4902                	lw	s2,0(sp)
1c013b46:	0141                	addi	sp,sp,16
1c013b48:	8082                	ret

1c013b4a <z_ready_thread>:
{
1c013b4a:	1141                	addi	sp,sp,-16
1c013b4c:	c606                	sw	ra,12(sp)
1c013b4e:	c422                	sw	s0,8(sp)
	__asm__ volatile ("csrrc %0, mstatus, %1"
1c013b50:	30047473          	csrrci	s0,mstatus,8
			ready_thread(thread);
1c013b54:	3b3d                	jal	1c013892 <ready_thread>
	__asm__ volatile ("csrs mstatus, %0"
1c013b56:	8821                	andi	s0,s0,8
1c013b58:	30042073          	csrs	mstatus,s0
}
1c013b5c:	40b2                	lw	ra,12(sp)
1c013b5e:	4422                	lw	s0,8(sp)
1c013b60:	0141                	addi	sp,sp,16
1c013b62:	8082                	ret

1c013b64 <z_sched_wake_thread>:
{
1c013b64:	1141                	addi	sp,sp,-16
1c013b66:	c606                	sw	ra,12(sp)
1c013b68:	c422                	sw	s0,8(sp)
1c013b6a:	c226                	sw	s1,4(sp)
	__asm__ volatile ("csrrc %0, mstatus, %1"
1c013b6c:	300474f3          	csrrci	s1,mstatus,8
		if (!killed) {
1c013b70:	00d54783          	lbu	a5,13(a0)
1c013b74:	0287f793          	andi	a5,a5,40
1c013b78:	ef81                	bnez	a5,1c013b90 <z_sched_wake_thread+0x2c>
			if (thread->base.pended_on != NULL) {
1c013b7a:	451c                	lw	a5,8(a0)
1c013b7c:	842a                	mv	s0,a0
1c013b7e:	c391                	beqz	a5,1c013b82 <z_sched_wake_thread+0x1e>
				unpend_thread_no_timeout(thread);
1c013b80:	39cd                	jal	1c013872 <unpend_thread_no_timeout>
	thread->base.thread_state &= ~_THREAD_SLEEPING;
1c013b82:	00d44783          	lbu	a5,13(s0)
			ready_thread(thread);
1c013b86:	8522                	mv	a0,s0
1c013b88:	9bed                	andi	a5,a5,-5
1c013b8a:	00f406a3          	sb	a5,13(s0)
1c013b8e:	3311                	jal	1c013892 <ready_thread>
	__asm__ volatile ("csrs mstatus, %0"
1c013b90:	88a1                	andi	s1,s1,8
1c013b92:	3004a073          	csrs	mstatus,s1
}
1c013b96:	40b2                	lw	ra,12(sp)
1c013b98:	4422                	lw	s0,8(sp)
1c013b9a:	4492                	lw	s1,4(sp)
1c013b9c:	0141                	addi	sp,sp,16
1c013b9e:	8082                	ret

1c013ba0 <z_thread_timeout>:
	z_sched_wake_thread(thread, true);
1c013ba0:	4585                	li	a1,1
1c013ba2:	1521                	addi	a0,a0,-24
1c013ba4:	b7c1                	j	1c013b64 <z_sched_wake_thread>

1c013ba6 <z_pend_curr>:
{
1c013ba6:	1101                	addi	sp,sp,-32
1c013ba8:	cc22                	sw	s0,24(sp)
1c013baa:	ca26                	sw	s1,20(sp)
1c013bac:	c84a                	sw	s2,16(sp)
1c013bae:	ce06                	sw	ra,28(sp)
1c013bb0:	842e                	mv	s0,a1
1c013bb2:	8936                	mv	s2,a3
1c013bb4:	85b2                	mv	a1,a2
1c013bb6:	84ba                	mv	s1,a4
	__asm__ volatile ("csrrc %0, mstatus, %1"
1c013bb8:	300477f3          	csrrci	a5,mstatus,8
	pend_locked(_current, wait_q, timeout);
1c013bbc:	1c0167b7          	lui	a5,0x1c016
1c013bc0:	4cc78793          	addi	a5,a5,1228 # 1c0164cc <_kernel>
1c013bc4:	4788                	lw	a0,8(a5)
	add_to_waitq_locked(thread, wait_q);
1c013bc6:	c62a                	sw	a0,12(sp)
1c013bc8:	35ad                	jal	1c013a32 <add_to_waitq_locked>
	add_thread_timeout(thread, timeout);
1c013bca:	4532                	lw	a0,12(sp)
1c013bcc:	85ca                	mv	a1,s2
1c013bce:	8626                	mv	a2,s1
1c013bd0:	33c5                	jal	1c0139b0 <add_thread_timeout>
	return z_swap(&_sched_spinlock, key);
1c013bd2:	85a2                	mv	a1,s0
}
1c013bd4:	4462                	lw	s0,24(sp)
1c013bd6:	40f2                	lw	ra,28(sp)
1c013bd8:	44d2                	lw	s1,20(sp)
1c013bda:	4942                	lw	s2,16(sp)
	return z_swap(&_sched_spinlock, key);
1c013bdc:	1c016537          	lui	a0,0x1c016
1c013be0:	4ec50513          	addi	a0,a0,1260 # 1c0164ec <_sched_spinlock>
}
1c013be4:	6105                	addi	sp,sp,32
	return z_swap(&_sched_spinlock, key);
1c013be6:	b3e5                	j	1c0139ce <z_swap>

1c013be8 <z_reschedule>:
static ALWAYS_INLINE bool arch_irq_unlocked(unsigned int key)
{
#ifdef CONFIG_RISCV_SOC_HAS_CUSTOM_IRQ_LOCK_OPS
	return z_soc_irq_unlocked(key);
#else
	return (key & MSTATUS_IEN) != 0;
1c013be8:	0085f713          	andi	a4,a1,8
	return arch_irq_unlocked(key) && !arch_is_in_isr();
1c013bec:	cf01                	beqz	a4,1c013c04 <z_reschedule+0x1c>
	return _kernel.cpus[0].nested != 0U;
1c013bee:	1c0167b7          	lui	a5,0x1c016
1c013bf2:	4cc78793          	addi	a5,a5,1228 # 1c0164cc <_kernel>
1c013bf6:	4394                	lw	a3,0(a5)
1c013bf8:	e691                	bnez	a3,1c013c04 <z_reschedule+0x1c>
	if (resched(key.key) && need_swap()) {
1c013bfa:	4bd4                	lw	a3,20(a5)
1c013bfc:	479c                	lw	a5,8(a5)
1c013bfe:	00f68363          	beq	a3,a5,1c013c04 <z_reschedule+0x1c>
		z_swap(lock, key);
1c013c02:	b3f1                	j	1c0139ce <z_swap>
	__asm__ volatile ("csrs mstatus, %0"
1c013c04:	30072073          	csrs	mstatus,a4
}
1c013c08:	8082                	ret

1c013c0a <z_reschedule_irqlock>:
{
1c013c0a:	1101                	addi	sp,sp,-32
1c013c0c:	cc22                	sw	s0,24(sp)
1c013c0e:	ce06                	sw	ra,28(sp)
1c013c10:	ca26                	sw	s1,20(sp)
	return (key & MSTATUS_IEN) != 0;
1c013c12:	00857413          	andi	s0,a0,8
	return arch_irq_unlocked(key) && !arch_is_in_isr();
1c013c16:	cc05                	beqz	s0,1c013c4e <z_reschedule_irqlock+0x44>
1c013c18:	1c0167b7          	lui	a5,0x1c016
1c013c1c:	4cc78793          	addi	a5,a5,1228 # 1c0164cc <_kernel>
1c013c20:	4398                	lw	a4,0(a5)
1c013c22:	e715                	bnez	a4,1c013c4e <z_reschedule_irqlock+0x44>
	return new_thread != _current;
1c013c24:	478c                	lw	a1,8(a5)
	if (resched(key) && need_swap()) {
1c013c26:	4bd8                	lw	a4,20(a5)
1c013c28:	02b70363          	beq	a4,a1,1c013c4e <z_reschedule_irqlock+0x44>
	old_thread->swap_retval = -EAGAIN;
1c013c2c:	5755                	li	a4,-11
1c013c2e:	08e5a023          	sw	a4,128(a1)
	__asm__ volatile ("csrrc %0, mstatus, %1"
1c013c32:	30047773          	csrrci	a4,mstatus,8
	return _kernel.ready_q.cache;
1c013c36:	4bc4                	lw	s1,20(a5)
	if (new_thread != old_thread) {
1c013c38:	c62e                	sw	a1,12(sp)
1c013c3a:	00958a63          	beq	a1,s1,1c013c4e <z_reschedule_irqlock+0x44>
		z_reset_time_slice(new_thread);
1c013c3e:	8526                	mv	a0,s1
		z_current_thread_set(new_thread);
1c013c40:	c784                	sw	s1,8(a5)
		z_reset_time_slice(new_thread);
1c013c42:	29f9                	jal	1c014120 <z_reset_time_slice>
	z_riscv_switch(new, old);
1c013c44:	45b2                	lw	a1,12(sp)
1c013c46:	0844a503          	lw	a0,132(s1)
1c013c4a:	e4bfc0ef          	jal	ra,1c010a94 <z_riscv_switch>
	__asm__ volatile ("csrs mstatus, %0"
1c013c4e:	30042073          	csrs	mstatus,s0
}
1c013c52:	40f2                	lw	ra,28(sp)
1c013c54:	4462                	lw	s0,24(sp)
1c013c56:	44d2                	lw	s1,20(sp)
1c013c58:	6105                	addi	sp,sp,32
1c013c5a:	8082                	ret

1c013c5c <k_sched_lock>:
	__asm__ volatile ("csrrc %0, mstatus, %1"
1c013c5c:	300477f3          	csrrci	a5,mstatus,8
		--_current->base.sched_locked;
1c013c60:	1c016737          	lui	a4,0x1c016
1c013c64:	4cc70713          	addi	a4,a4,1228 # 1c0164cc <_kernel>
1c013c68:	4714                	lw	a3,8(a4)
1c013c6a:	00f6c703          	lbu	a4,15(a3)
1c013c6e:	177d                	addi	a4,a4,-1
1c013c70:	00e687a3          	sb	a4,15(a3)
	__asm__ volatile ("csrs mstatus, %0"
1c013c74:	8ba1                	andi	a5,a5,8
1c013c76:	3007a073          	csrs	mstatus,a5
}
1c013c7a:	8082                	ret

1c013c7c <k_sched_unlock>:
{
1c013c7c:	1141                	addi	sp,sp,-16
1c013c7e:	c606                	sw	ra,12(sp)
1c013c80:	c422                	sw	s0,8(sp)
1c013c82:	c226                	sw	s1,4(sp)
1c013c84:	c04a                	sw	s2,0(sp)
	__asm__ volatile ("csrrc %0, mstatus, %1"
1c013c86:	30047973          	csrrci	s2,mstatus,8
		++_current->base.sched_locked;
1c013c8a:	1c016437          	lui	s0,0x1c016
1c013c8e:	4cc40693          	addi	a3,s0,1228 # 1c0164cc <_kernel>
1c013c92:	469c                	lw	a5,8(a3)
1c013c94:	4cc40413          	addi	s0,s0,1228
1c013c98:	00f7c703          	lbu	a4,15(a5)
1c013c9c:	0705                	addi	a4,a4,1
1c013c9e:	00e787a3          	sb	a4,15(a5)
	return list->head == list;
1c013ca2:	4e84                	lw	s1,24(a3)
	return sys_dlist_is_empty(list) ? NULL : list->head;
1c013ca4:	1c016737          	lui	a4,0x1c016
1c013ca8:	4e470713          	addi	a4,a4,1252 # 1c0164e4 <_kernel+0x18>
1c013cac:	00e48363          	beq	s1,a4,1c013cb2 <k_sched_unlock+0x36>
	return (thread != NULL) ? thread : _current_cpu->idle_thread;
1c013cb0:	e091                	bnez	s1,1c013cb4 <k_sched_unlock+0x38>
1c013cb2:	4444                	lw	s1,12(s0)
	if (z_is_thread_prevented_from_running(_current)) {
1c013cb4:	00d7c703          	lbu	a4,13(a5)
1c013cb8:	8b7d                	andi	a4,a4,31
1c013cba:	e719                	bnez	a4,1c013cc8 <k_sched_unlock+0x4c>
	if (thread_is_preemptible(_current) || thread_is_metairq(thread)) {
1c013cbc:	00e7d683          	lhu	a3,14(a5)
1c013cc0:	07f00713          	li	a4,127
1c013cc4:	00d76763          	bltu	a4,a3,1c013cd2 <k_sched_unlock+0x56>
		if (thread != _current) {
1c013cc8:	00978463          	beq	a5,s1,1c013cd0 <k_sched_unlock+0x54>
			z_reset_time_slice(thread);
1c013ccc:	8526                	mv	a0,s1
1c013cce:	2989                	jal	1c014120 <z_reset_time_slice>
		_kernel.ready_q.cache = thread;
1c013cd0:	87a6                	mv	a5,s1
		_kernel.ready_q.cache = _current;
1c013cd2:	c85c                	sw	a5,20(s0)
	__asm__ volatile ("csrs mstatus, %0"
1c013cd4:	00897913          	andi	s2,s2,8
1c013cd8:	30092073          	csrs	mstatus,s2
	LOG_DBG("scheduler unlocked (%p:%d)",
1c013cdc:	4410                	lw	a2,8(s0)
1c013cde:	1c015537          	lui	a0,0x1c015
1c013ce2:	04400593          	li	a1,68
1c013ce6:	00f64683          	lbu	a3,15(a2)
1c013cea:	61050513          	addi	a0,a0,1552 # 1c015610 <levels.0+0x70>
1c013cee:	aedfd0ef          	jal	ra,1c0117da <z_log_minimal_printk>
	__asm__ volatile ("csrrc %0, mstatus, %1"
1c013cf2:	30047573          	csrrci	a0,mstatus,8
}
1c013cf6:	4422                	lw	s0,8(sp)
1c013cf8:	40b2                	lw	ra,12(sp)
1c013cfa:	4492                	lw	s1,4(sp)
1c013cfc:	4902                	lw	s2,0(sp)
1c013cfe:	0141                	addi	sp,sp,16
	(void) z_reschedule_irqlock(arch_irq_lock());
1c013d00:	b729                	j	1c013c0a <z_reschedule_irqlock>

1c013d02 <z_swap_next_thread>:
	return _kernel.ready_q.cache;
1c013d02:	1c0167b7          	lui	a5,0x1c016
#endif /* CONFIG_SMP */
}
1c013d06:	4cc78793          	addi	a5,a5,1228 # 1c0164cc <_kernel>
1c013d0a:	4bc8                	lw	a0,20(a5)
1c013d0c:	8082                	ret

1c013d0e <z_get_next_switch_handle>:
		new_thread->switch_handle = NULL;
	}
	signal_pending_ipi();
	return ret;
#else
	z_sched_usage_switch(_kernel.ready_q.cache);
1c013d0e:	1c0167b7          	lui	a5,0x1c016
1c013d12:	4cc78793          	addi	a5,a5,1228 # 1c0164cc <_kernel>
	_current->switch_handle = interrupted;
1c013d16:	4794                	lw	a3,8(a5)
	z_sched_usage_switch(_kernel.ready_q.cache);
1c013d18:	4bd8                	lw	a4,20(a5)
	_current->switch_handle = interrupted;
1c013d1a:	08a6a223          	sw	a0,132(a3)
	set_current(_kernel.ready_q.cache);
	return _current->switch_handle;
#endif /* CONFIG_SMP */
}
1c013d1e:	08472503          	lw	a0,132(a4)
	z_current_thread_set(new_thread);
1c013d22:	c798                	sw	a4,8(a5)
}
1c013d24:	8082                	ret

1c013d26 <z_sched_init>:
	list->head = (sys_dnode_t *)list;
1c013d26:	1c0167b7          	lui	a5,0x1c016
1c013d2a:	1c016737          	lui	a4,0x1c016
1c013d2e:	4cc78793          	addi	a5,a5,1228 # 1c0164cc <_kernel>
1c013d32:	4e470713          	addi	a4,a4,1252 # 1c0164e4 <_kernel+0x18>
1c013d36:	cf98                	sw	a4,24(a5)
	list->tail = (sys_dnode_t *)list;
1c013d38:	cfd8                	sw	a4,28(a5)
		init_ready_q(&_kernel.cpus[i].ready_q);
	}
#else
	init_ready_q(&_kernel.ready_q);
#endif /* CONFIG_SCHED_CPU_MASK_PIN_ONLY */
}
1c013d3a:	8082                	ret

1c013d3c <z_impl_k_yield>:
	return !(k_is_pre_kernel() || k_is_in_isr() ||
		 z_is_idle_thread_object(_current));
}

void z_impl_k_yield(void)
{
1c013d3c:	1101                	addi	sp,sp,-32
1c013d3e:	ce06                	sw	ra,28(sp)
1c013d40:	cc22                	sw	s0,24(sp)
1c013d42:	ca26                	sw	s1,20(sp)
1c013d44:	300475f3          	csrrci	a1,mstatus,8
static ALWAYS_INLINE void z_priq_simple_yield(sys_dlist_t *pq)
{
#ifndef CONFIG_SMP
	sys_dnode_t *n;

	n = sys_dlist_peek_next_no_check(pq, &_current->base.qnode_dlist);
1c013d48:	1c016437          	lui	s0,0x1c016
1c013d4c:	4cc40793          	addi	a5,s0,1228 # 1c0164cc <_kernel>
1c013d50:	4794                	lw	a3,8(a5)
	return (node == list->tail) ? NULL : node->next;
1c013d52:	4fd0                	lw	a2,28(a5)
1c013d54:	4cc40413          	addi	s0,s0,1228
1c013d58:	429c                	lw	a5,0(a3)
1c013d5a:	873e                	mv	a4,a5
1c013d5c:	00c69363          	bne	a3,a2,1c013d62 <z_impl_k_yield+0x26>
1c013d60:	4701                	li	a4,0
	sys_dnode_t *const prev = node->prev;
1c013d62:	42d4                	lw	a3,4(a3)
	prev->next = next;
1c013d64:	c29c                	sw	a5,0(a3)
	next->prev = prev;
1c013d66:	c3d4                	sw	a3,4(a5)
	 * to re-insert it.
	 */

	while (n != NULL) {
		t = CONTAINER_OF(n, struct k_thread, base.qnode_dlist);
		if (z_sched_prio_cmp(_current, t) > 0) {
1c013d68:	441c                	lw	a5,8(s0)
	return (node == list->tail) ? NULL : node->next;
1c013d6a:	4c54                	lw	a3,28(s0)
	while (n != NULL) {
1c013d6c:	eb11                	bnez	a4,1c013d80 <z_impl_k_yield+0x44>
	node->next = list;
1c013d6e:	1c016737          	lui	a4,0x1c016
1c013d72:	4e470713          	addi	a4,a4,1252 # 1c0164e4 <_kernel+0x18>
1c013d76:	c398                	sw	a4,0(a5)
	node->prev = tail;
1c013d78:	c3d4                	sw	a3,4(a5)
	tail->next = node;
1c013d7a:	c29c                	sw	a5,0(a3)
	list->tail = node;
1c013d7c:	cc5c                	sw	a5,28(s0)
}
1c013d7e:	a831                	j	1c013d9a <z_impl_k_yield+0x5e>
	int32_t b1 = thread_1->base.prio;
1c013d80:	00e78603          	lb	a2,14(a5)
	int32_t b2 = thread_2->base.prio;
1c013d84:	00e70503          	lb	a0,14(a4)
	if (b1 != b2) {
1c013d88:	04a60463          	beq	a2,a0,1c013dd0 <z_impl_k_yield+0x94>
		if (z_sched_prio_cmp(_current, t) > 0) {
1c013d8c:	04a65263          	bge	a2,a0,1c013dd0 <z_impl_k_yield+0x94>
	sys_dnode_t *const prev = successor->prev;
1c013d90:	4354                	lw	a3,4(a4)
	node->next = successor;
1c013d92:	c398                	sw	a4,0(a5)
	node->prev = prev;
1c013d94:	c3d4                	sw	a3,4(a5)
	prev->next = node;
1c013d96:	c29c                	sw	a5,0(a3)
	successor->prev = node;
1c013d98:	c35c                	sw	a5,4(a4)
	return list->head == list;
1c013d9a:	4c04                	lw	s1,24(s0)
	return sys_dlist_is_empty(list) ? NULL : list->head;
1c013d9c:	1c0167b7          	lui	a5,0x1c016
1c013da0:	4e478793          	addi	a5,a5,1252 # 1c0164e4 <_kernel+0x18>
1c013da4:	00f48363          	beq	s1,a5,1c013daa <z_impl_k_yield+0x6e>
	return (thread != NULL) ? thread : _current_cpu->idle_thread;
1c013da8:	e091                	bnez	s1,1c013dac <z_impl_k_yield+0x70>
1c013daa:	4444                	lw	s1,12(s0)
		if (thread != _current) {
1c013dac:	441c                	lw	a5,8(s0)
1c013dae:	00f48663          	beq	s1,a5,1c013dba <z_impl_k_yield+0x7e>
			z_reset_time_slice(thread);
1c013db2:	8526                	mv	a0,s1
1c013db4:	c62e                	sw	a1,12(sp)
1c013db6:	26ad                	jal	1c014120 <z_reset_time_slice>
1c013db8:	45b2                	lw	a1,12(sp)
		_kernel.ready_q.cache = thread;
1c013dba:	c844                	sw	s1,20(s0)

	runq_yield();

	update_cache(1);
	z_swap(&_sched_spinlock, key);
}
1c013dbc:	4462                	lw	s0,24(sp)
1c013dbe:	40f2                	lw	ra,28(sp)
1c013dc0:	44d2                	lw	s1,20(sp)
	z_swap(&_sched_spinlock, key);
1c013dc2:	1c016537          	lui	a0,0x1c016
1c013dc6:	4ec50513          	addi	a0,a0,1260 # 1c0164ec <_sched_spinlock>
}
1c013dca:	6105                	addi	sp,sp,32
	z_swap(&_sched_spinlock, key);
1c013dcc:	c03ff06f          	j	1c0139ce <z_swap>
	return (node == list->tail) ? NULL : node->next;
1c013dd0:	f8e68fe3          	beq	a3,a4,1c013d6e <z_impl_k_yield+0x32>
1c013dd4:	4318                	lw	a4,0(a4)
1c013dd6:	bf59                	j	1c013d6c <z_impl_k_yield+0x30>

1c013dd8 <z_tick_sleep>:
}
#include <zephyr/syscalls/k_yield_mrsh.c>
#endif /* CONFIG_USERSPACE */

static int32_t z_tick_sleep(k_timeout_t timeout)
{
1c013dd8:	1101                	addi	sp,sp,-32
1c013dda:	ca26                	sw	s1,20(sp)
	uint32_t expected_wakeup_ticks;

	__ASSERT(!arch_is_in_isr(), "");

	LOG_DBG("thread %p for %lu ticks", _current, (unsigned long)timeout.ticks);
1c013ddc:	1c0164b7          	lui	s1,0x1c016
{
1c013de0:	cc22                	sw	s0,24(sp)
1c013de2:	c84a                	sw	s2,16(sp)
1c013de4:	ce06                	sw	ra,28(sp)
1c013de6:	c64e                	sw	s3,12(sp)
	LOG_DBG("thread %p for %lu ticks", _current, (unsigned long)timeout.ticks);
1c013de8:	4cc48493          	addi	s1,s1,1228 # 1c0164cc <_kernel>
1c013dec:	4490                	lw	a2,8(s1)
{
1c013dee:	842a                	mv	s0,a0
	LOG_DBG("thread %p for %lu ticks", _current, (unsigned long)timeout.ticks);
1c013df0:	86aa                	mv	a3,a0
1c013df2:	1c015537          	lui	a0,0x1c015
{
1c013df6:	892e                	mv	s2,a1
	LOG_DBG("thread %p for %lu ticks", _current, (unsigned long)timeout.ticks);
1c013df8:	63050513          	addi	a0,a0,1584 # 1c015630 <levels.0+0x90>
1c013dfc:	04400593          	li	a1,68
1c013e00:	9dbfd0ef          	jal	ra,1c0117da <z_log_minimal_printk>

	/* K_NO_WAIT is treated as a 'yield' */
	if (K_TIMEOUT_EQ(timeout, K_NO_WAIT)) {
1c013e04:	008967b3          	or	a5,s2,s0
1c013e08:	e781                	bnez	a5,1c013e10 <z_tick_sleep+0x38>
	z_impl_k_yield();
1c013e0a:	3f0d                	jal	1c013d3c <z_impl_k_yield>
	uint32_t left_ticks = expected_wakeup_ticks - sys_clock_tick_get_32();

	/* To handle a negative value correctly, once type-cast it to signed 32 bit */
	k_ticks_t ticks = (k_ticks_t)(int32_t)left_ticks;

	if (ticks > 0) {
1c013e0c:	4501                	li	a0,0
1c013e0e:	a899                	j	1c013e64 <z_tick_sleep+0x8c>
1c013e10:	300479f3          	csrrci	s3,mstatus,8
	unready_thread(_current);
1c013e14:	4488                	lw	a0,8(s1)
1c013e16:	b25ff0ef          	jal	ra,1c01393a <unready_thread>
	expected_wakeup_ticks = (uint32_t)z_add_thread_timeout(_current, timeout);
1c013e1a:	4488                	lw	a0,8(s1)
1c013e1c:	1c0145b7          	lui	a1,0x1c014
1c013e20:	8622                	mv	a2,s0
1c013e22:	86ca                	mv	a3,s2
1c013e24:	ba058593          	addi	a1,a1,-1120 # 1c013ba0 <z_thread_timeout>
1c013e28:	0561                	addi	a0,a0,24
1c013e2a:	2991                	jal	1c01427e <z_add_timeout>
	z_mark_thread_as_sleeping(_current);
1c013e2c:	4498                	lw	a4,8(s1)
1c013e2e:	842a                	mv	s0,a0
	(void)z_swap(&_sched_spinlock, key);
1c013e30:	1c016537          	lui	a0,0x1c016
	thread->base.thread_state |= _THREAD_SLEEPING;
1c013e34:	00d74783          	lbu	a5,13(a4)
1c013e38:	85ce                	mv	a1,s3
1c013e3a:	4ec50513          	addi	a0,a0,1260 # 1c0164ec <_sched_spinlock>
1c013e3e:	0047e793          	ori	a5,a5,4
1c013e42:	00f706a3          	sb	a5,13(a4)
1c013e46:	b89ff0ef          	jal	ra,1c0139ce <z_swap>
	return to->dticks == TIMEOUT_DTICKS_ABORTED;
1c013e4a:	449c                	lw	a5,8(s1)
	if (!z_is_aborted_thread_timeout(_current)) {
1c013e4c:	5798                	lw	a4,40(a5)
1c013e4e:	ff5d                	bnez	a4,1c013e0c <z_tick_sleep+0x34>
1c013e50:	57d8                	lw	a4,44(a5)
1c013e52:	800007b7          	lui	a5,0x80000
1c013e56:	faf71be3          	bne	a4,a5,1c013e0c <z_tick_sleep+0x34>
	uint32_t left_ticks = expected_wakeup_ticks - sys_clock_tick_get_32();
1c013e5a:	2d61                	jal	1c0144f2 <sys_clock_tick_get_32>
1c013e5c:	40a40533          	sub	a0,s0,a0
	if (ticks > 0) {
1c013e60:	fa0546e3          	bltz	a0,1c013e0c <z_tick_sleep+0x34>
		return ticks;
	}

	return 0;
}
1c013e64:	40f2                	lw	ra,28(sp)
1c013e66:	4462                	lw	s0,24(sp)
1c013e68:	44d2                	lw	s1,20(sp)
1c013e6a:	4942                	lw	s2,16(sp)
1c013e6c:	49b2                	lw	s3,12(sp)
1c013e6e:	6105                	addi	sp,sp,32
1c013e70:	8082                	ret

1c013e72 <z_impl_k_sleep>:

int32_t z_impl_k_sleep(k_timeout_t timeout)
{
1c013e72:	1141                	addi	sp,sp,-16
1c013e74:	c422                	sw	s0,8(sp)
1c013e76:	c226                	sw	s1,4(sp)
1c013e78:	c606                	sw	ra,12(sp)
1c013e7a:	842a                	mv	s0,a0
1c013e7c:	84ae                	mv	s1,a1

	__ASSERT(!arch_is_in_isr(), "");

	SYS_PORT_TRACING_FUNC_ENTER(k_thread, sleep, timeout);

	ticks = z_tick_sleep(timeout);
1c013e7e:	3fa9                	jal	1c013dd8 <z_tick_sleep>

	/* k_sleep() still returns 32 bit milliseconds for compatibility */
	int64_t ms = K_TIMEOUT_EQ(timeout, K_FOREVER) ? K_TICKS_FOREVER :
1c013e80:	577d                	li	a4,-1
	ticks = z_tick_sleep(timeout);
1c013e82:	87aa                	mv	a5,a0
	int64_t ms = K_TIMEOUT_EQ(timeout, K_FOREVER) ? K_TICKS_FOREVER :
1c013e84:	00e41563          	bne	s0,a4,1c013e8e <z_impl_k_sleep+0x1c>
1c013e88:	8522                	mv	a0,s0
1c013e8a:	04848563          	beq	s1,s0,1c013ed4 <z_impl_k_sleep+0x62>
		CLAMP(k_ticks_to_ms_ceil64(ticks), 0, INT_MAX);
1c013e8e:	3e800713          	li	a4,1000
1c013e92:	02e785b3          	mul	a1,a5,a4
1c013e96:	02e797b3          	mulh	a5,a5,a4
1c013e9a:	6721                	lui	a4,0x8
1c013e9c:	a1170713          	addi	a4,a4,-1519 # 7a11 <_image_ram_size+0x721>
1c013ea0:	00e58533          	add	a0,a1,a4
1c013ea4:	00b535b3          	sltu	a1,a0,a1
1c013ea8:	95be                	add	a1,a1,a5
	int64_t ms = K_TIMEOUT_EQ(timeout, K_FOREVER) ? K_TICKS_FOREVER :
1c013eaa:	e199                	bnez	a1,1c013eb0 <z_impl_k_sleep+0x3e>
1c013eac:	02a77963          	bgeu	a4,a0,1c013ede <z_impl_k_sleep+0x6c>
1c013eb0:	6791                	lui	a5,0x4
1c013eb2:	d0878793          	addi	a5,a5,-760 # 3d08 <__kernel_ram_size+0x2144>
1c013eb6:	02b7e663          	bltu	a5,a1,1c013ee2 <z_impl_k_sleep+0x70>
1c013eba:	00f59763          	bne	a1,a5,1c013ec8 <z_impl_k_sleep+0x56>
1c013ebe:	77e1                	lui	a5,0xffff8
1c013ec0:	5ed78793          	addi	a5,a5,1517 # ffff85ed <CONFIG_COMMON_LIBC_MALLOC_ARENA_SIZE+0xffff85ee>
1c013ec4:	00a7ef63          	bltu	a5,a0,1c013ee2 <z_impl_k_sleep+0x70>
		CLAMP(k_ticks_to_ms_ceil64(ticks), 0, INT_MAX);
1c013ec8:	6621                	lui	a2,0x8
1c013eca:	a1260613          	addi	a2,a2,-1518 # 7a12 <CONFIG_SYS_CLOCK_TICKS_PER_SEC>
1c013ece:	4681                	li	a3,0
1c013ed0:	f68fc0ef          	jal	ra,1c010638 <__udivdi3>

	SYS_PORT_TRACING_FUNC_EXIT(k_thread, sleep, timeout, ms);
	return (int32_t) ms;
}
1c013ed4:	40b2                	lw	ra,12(sp)
1c013ed6:	4422                	lw	s0,8(sp)
1c013ed8:	4492                	lw	s1,4(sp)
1c013eda:	0141                	addi	sp,sp,16
1c013edc:	8082                	ret
	int64_t ms = K_TIMEOUT_EQ(timeout, K_FOREVER) ? K_TICKS_FOREVER :
1c013ede:	4501                	li	a0,0
1c013ee0:	bfd5                	j	1c013ed4 <z_impl_k_sleep+0x62>
1c013ee2:	80000537          	lui	a0,0x80000
1c013ee6:	157d                	addi	a0,a0,-1 # 7fffffff <CONFIG_COMMON_LIBC_MALLOC_ARENA_SIZE+0x80000000>
1c013ee8:	b7f5                	j	1c013ed4 <z_impl_k_sleep+0x62>

1c013eea <z_impl_k_usleep>:
{
	int32_t ticks;

	SYS_PORT_TRACING_FUNC_ENTER(k_thread, usleep, us);

	ticks = k_us_to_ticks_ceil64(us);
1c013eea:	01f50713          	addi	a4,a0,31
1c013eee:	41f55693          	srai	a3,a0,0x1f
1c013ef2:	00a737b3          	sltu	a5,a4,a0
1c013ef6:	97b6                	add	a5,a5,a3
1c013ef8:	07ee                	slli	a5,a5,0x1b
1c013efa:	00575513          	srli	a0,a4,0x5
1c013efe:	8d5d                	or	a0,a0,a5
{
1c013f00:	1141                	addi	sp,sp,-16
	ticks = z_tick_sleep(Z_TIMEOUT_TICKS(ticks));
1c013f02:	41f55593          	srai	a1,a0,0x1f
{
1c013f06:	c606                	sw	ra,12(sp)
	ticks = z_tick_sleep(Z_TIMEOUT_TICKS(ticks));
1c013f08:	3dc1                	jal	1c013dd8 <z_tick_sleep>
	int32_t ret = k_ticks_to_us_ceil64(ticks);

	SYS_PORT_TRACING_FUNC_EXIT(k_thread, usleep, us, ret);

	return ret;
}
1c013f0a:	40b2                	lw	ra,12(sp)
1c013f0c:	0516                	slli	a0,a0,0x5
1c013f0e:	0141                	addi	sp,sp,16
1c013f10:	8082                	ret

1c013f12 <z_impl_k_wakeup>:
1c013f12:	300475f3          	csrrci	a1,mstatus,8
{
	SYS_PORT_TRACING_OBJ_FUNC(k_thread, wakeup, thread);

	k_spinlock_key_t  key = k_spin_lock(&_sched_spinlock);

	if (z_is_thread_sleeping(thread)) {
1c013f16:	00d54783          	lbu	a5,13(a0)
1c013f1a:	8b91                	andi	a5,a5,4
1c013f1c:	cb95                	beqz	a5,1c013f50 <z_impl_k_wakeup+0x3e>
{
1c013f1e:	1101                	addi	sp,sp,-32
1c013f20:	cc22                	sw	s0,24(sp)
1c013f22:	842a                	mv	s0,a0
	z_abort_timeout(&thread->base.timeout);
1c013f24:	0561                	addi	a0,a0,24
1c013f26:	ce06                	sw	ra,28(sp)
1c013f28:	c62e                	sw	a1,12(sp)
1c013f2a:	217d                	jal	1c0143d8 <z_abort_timeout>
	thread->base.thread_state &= ~_THREAD_SLEEPING;
1c013f2c:	00d44783          	lbu	a5,13(s0)
		z_abort_thread_timeout(thread);
		z_mark_thread_as_not_sleeping(thread);
		ready_thread(thread);
1c013f30:	8522                	mv	a0,s0
1c013f32:	9bed                	andi	a5,a5,-5
1c013f34:	00f406a3          	sb	a5,13(s0)
1c013f38:	95bff0ef          	jal	ra,1c013892 <ready_thread>
		z_reschedule(&_sched_spinlock, key);
	} else {
		k_spin_unlock(&_sched_spinlock, key);
	}
}
1c013f3c:	4462                	lw	s0,24(sp)
		z_reschedule(&_sched_spinlock, key);
1c013f3e:	45b2                	lw	a1,12(sp)
}
1c013f40:	40f2                	lw	ra,28(sp)
		z_reschedule(&_sched_spinlock, key);
1c013f42:	1c016537          	lui	a0,0x1c016
1c013f46:	4ec50513          	addi	a0,a0,1260 # 1c0164ec <_sched_spinlock>
}
1c013f4a:	6105                	addi	sp,sp,32
		z_reschedule(&_sched_spinlock, key);
1c013f4c:	c9dff06f          	j	1c013be8 <z_reschedule>
	__asm__ volatile ("csrs mstatus, %0"
1c013f50:	89a1                	andi	a1,a1,8
1c013f52:	3005a073          	csrs	mstatus,a1
1c013f56:	8082                	ret

1c013f58 <z_impl_k_sched_current_thread_query>:
#include <zephyr/syscalls/k_wakeup_mrsh.c>
#endif /* CONFIG_USERSPACE */

k_tid_t z_impl_k_sched_current_thread_query(void)
{
	return _current;
1c013f58:	1c0167b7          	lui	a5,0x1c016
}
1c013f5c:	4cc78793          	addi	a5,a5,1228 # 1c0164cc <_kernel>
1c013f60:	4788                	lw	a0,8(a5)
1c013f62:	8082                	ret

1c013f64 <z_thread_abort>:
		clear_halting(thread);
	}
}

void z_thread_abort(struct k_thread *thread)
{
1c013f64:	1101                	addi	sp,sp,-32
1c013f66:	ce06                	sw	ra,28(sp)
1c013f68:	cc22                	sw	s0,24(sp)
1c013f6a:	ca26                	sw	s1,20(sp)
1c013f6c:	c84a                	sw	s2,16(sp)
1c013f6e:	c64e                	sw	s3,12(sp)
1c013f70:	c452                	sw	s4,8(sp)
1c013f72:	c256                	sw	s5,4(sp)
	return (thread->base.user_options & K_ESSENTIAL) == K_ESSENTIAL;
1c013f74:	00c54a03          	lbu	s4,12(a0)
	__asm__ volatile ("csrrc %0, mstatus, %1"
1c013f78:	300474f3          	csrrci	s1,mstatus,8
	return (thread->base.thread_state & _THREAD_DEAD) != 0U;
1c013f7c:	00d54783          	lbu	a5,13(a0)
	bool essential = z_is_thread_essential(thread);
	k_spinlock_key_t key = k_spin_lock(&_sched_spinlock);

	if (z_is_thread_dead(thread)) {
1c013f80:	0087f713          	andi	a4,a5,8
1c013f84:	cf09                	beqz	a4,1c013f9e <z_thread_abort+0x3a>
	__asm__ volatile ("csrs mstatus, %0"
1c013f86:	88a1                	andi	s1,s1,8
1c013f88:	3004a073          	csrs	mstatus,s1

	if (essential) {
		__ASSERT(!essential, "aborted essential thread %p", thread);
		k_panic();
	}
}
1c013f8c:	40f2                	lw	ra,28(sp)
1c013f8e:	4462                	lw	s0,24(sp)
1c013f90:	44d2                	lw	s1,20(sp)
1c013f92:	4942                	lw	s2,16(sp)
1c013f94:	49b2                	lw	s3,12(sp)
1c013f96:	4a22                	lw	s4,8(sp)
1c013f98:	4a92                	lw	s5,4(sp)
1c013f9a:	6105                	addi	sp,sp,32
1c013f9c:	8082                	ret
		thread->base.thread_state |= new_state;
1c013f9e:	0087e713          	ori	a4,a5,8
		if (z_is_thread_queued(thread)) {
1c013fa2:	01871693          	slli	a3,a4,0x18
1c013fa6:	86e1                	srai	a3,a3,0x18
1c013fa8:	842a                	mv	s0,a0
1c013faa:	0c06c763          	bltz	a3,1c014078 <z_thread_abort+0x114>
		thread->base.thread_state |= new_state;
1c013fae:	00e506a3          	sb	a4,13(a0)
			if (thread->base.pended_on != NULL) {
1c013fb2:	441c                	lw	a5,8(s0)
1c013fb4:	c781                	beqz	a5,1c013fbc <z_thread_abort+0x58>
				unpend_thread_no_timeout(thread);
1c013fb6:	8522                	mv	a0,s0
1c013fb8:	8bbff0ef          	jal	ra,1c013872 <unpend_thread_no_timeout>
1c013fbc:	01840513          	addi	a0,s0,24
1c013fc0:	2921                	jal	1c0143d8 <z_abort_timeout>
}

static inline struct k_thread *z_waitq_head(_wait_q_t *w)
{
	return (struct k_thread *)sys_dlist_peek_head(&w->waitq);
1c013fc2:	06c40993          	addi	s3,s0,108
	return list->head == list;
1c013fc6:	06c42903          	lw	s2,108(s0)
	return sys_dlist_is_empty(list) ? NULL : list->head;
1c013fca:	01298463          	beq	s3,s2,1c013fd2 <z_thread_abort+0x6e>
	for (thread = z_waitq_head(wait_q); thread != NULL; thread = z_waitq_head(wait_q)) {
1c013fce:	0a091e63          	bnez	s2,1c01408a <z_thread_abort+0x126>
			if (thread == _current && arch_is_in_isr()) {
1c013fd2:	1c016937          	lui	s2,0x1c016
1c013fd6:	4cc90793          	addi	a5,s2,1228 # 1c0164cc <_kernel>
1c013fda:	4798                	lw	a4,8(a5)
1c013fdc:	4cc90913          	addi	s2,s2,1228
	bool dummify = false;
1c013fe0:	4a81                	li	s5,0
			if (thread == _current && arch_is_in_isr()) {
1c013fe2:	00e41663          	bne	s0,a4,1c013fee <z_thread_abort+0x8a>
1c013fe6:	00092a83          	lw	s5,0(s2)
1c013fea:	01503ab3          	snez	s5,s5
	return list->head == list;
1c013fee:	01892983          	lw	s3,24(s2)
	return sys_dlist_is_empty(list) ? NULL : list->head;
1c013ff2:	1c0167b7          	lui	a5,0x1c016
1c013ff6:	4e478793          	addi	a5,a5,1252 # 1c0164e4 <_kernel+0x18>
1c013ffa:	00f98463          	beq	s3,a5,1c014002 <z_thread_abort+0x9e>
	return (thread != NULL) ? thread : _current_cpu->idle_thread;
1c013ffe:	00099463          	bnez	s3,1c014006 <z_thread_abort+0xa2>
1c014002:	00c92983          	lw	s3,12(s2)
		if (thread != _current) {
1c014006:	01370463          	beq	a4,s3,1c01400e <z_thread_abort+0xaa>
			z_reset_time_slice(thread);
1c01400a:	854e                	mv	a0,s3
1c01400c:	2a11                	jal	1c014120 <z_reset_time_slice>
		arch_coprocessors_disable(thread);
1c01400e:	8522                	mv	a0,s0
		_kernel.ready_q.cache = thread;
1c014010:	01392a23          	sw	s3,20(s2)
		arch_coprocessors_disable(thread);
1c014014:	a77fd0ef          	jal	ra,1c011a8a <arch_coprocessors_disable>
		if (dummify && !IS_ENABLED(CONFIG_ARCH_POSIX)) {
1c014018:	000a8c63          	beqz	s5,1c014030 <z_thread_abort+0xcc>
			_current->switch_handle = _current;
1c01401c:	00892783          	lw	a5,8(s2)
			z_dummy_thread_init(&_thread_dummy);
1c014020:	1c016537          	lui	a0,0x1c016
1c014024:	2f050513          	addi	a0,a0,752 # 1c0162f0 <_thread_dummy>
			_current->switch_handle = _current;
1c014028:	08f7a223          	sw	a5,132(a5)
			z_dummy_thread_init(&_thread_dummy);
1c01402c:	817ff0ef          	jal	ra,1c013842 <z_dummy_thread_init>
		if ((thread == _current) && !arch_is_in_isr()) {
1c014030:	00892783          	lw	a5,8(s2)
1c014034:	06f41763          	bne	s0,a5,1c0140a2 <z_thread_abort+0x13e>
1c014038:	00092783          	lw	a5,0(s2)
1c01403c:	e3bd                	bnez	a5,1c0140a2 <z_thread_abort+0x13e>
	return (thread->base.user_options & K_ESSENTIAL) == K_ESSENTIAL;
1c01403e:	00c44783          	lbu	a5,12(s0)

	/* Note that we need to use the underlying arch-specific lock
	 * implementation.  The "irq_lock()" API in SMP context is
	 * actually a wrapper for a global spinlock!
	 */
	k.key = arch_irq_lock();
1c014042:	85a6                	mv	a1,s1
			if (z_is_thread_essential(thread)) {
1c014044:	8b85                	andi	a5,a5,1
1c014046:	cb91                	beqz	a5,1c01405a <z_thread_abort+0xf6>
1c014048:	88a1                	andi	s1,s1,8
1c01404a:	3004a073          	csrs	mstatus,s1
	return a0;
}

static inline uintptr_t arch_syscall_invoke1(uintptr_t arg1, uintptr_t call_id)
{
	register unsigned long a0 __asm__ ("a0") = arg1;
1c01404e:	4511                	li	a0,4
	register unsigned long t0 __asm__ ("t0") = call_id;
1c014050:	4281                	li	t0,0

	__asm__ volatile ("ecall"
1c014052:	00000073          	ecall
	__asm__ volatile ("csrrc %0, mstatus, %1"
1c014056:	300475f3          	csrrci	a1,mstatus,8
			z_swap(&_sched_spinlock, key);
1c01405a:	1c016537          	lui	a0,0x1c016
1c01405e:	4ec50513          	addi	a0,a0,1260 # 1c0164ec <_sched_spinlock>
1c014062:	96dff0ef          	jal	ra,1c0139ce <z_swap>
	if (essential) {
1c014066:	001a7a13          	andi	s4,s4,1
1c01406a:	f20a01e3          	beqz	s4,1c013f8c <z_thread_abort+0x28>
	register unsigned long a0 __asm__ ("a0") = arg1;
1c01406e:	4511                	li	a0,4
	register unsigned long t0 __asm__ ("t0") = call_id;
1c014070:	4281                	li	t0,0
	__asm__ volatile ("ecall"
1c014072:	00000073          	ecall
			  : "+r" (a0)
			  : "r" (t0)
			  : "memory");
	return a0;
1c014076:	bf19                	j	1c013f8c <z_thread_abort+0x28>
	thread->base.thread_state &= ~_THREAD_QUEUED;
1c014078:	07f7f793          	andi	a5,a5,127
1c01407c:	0087e793          	ori	a5,a5,8
1c014080:	00f506a3          	sb	a5,13(a0)
	sys_dlist_remove(&thread->base.qnode_dlist);
1c014084:	fdcff0ef          	jal	ra,1c013860 <sys_dlist_remove>
}
1c014088:	b72d                	j	1c013fb2 <z_thread_abort+0x4e>
		unpend_thread_no_timeout(thread);
1c01408a:	854a                	mv	a0,s2
1c01408c:	fe6ff0ef          	jal	ra,1c013872 <unpend_thread_no_timeout>
1c014090:	01890513          	addi	a0,s2,24
1c014094:	2691                	jal	1c0143d8 <z_abort_timeout>
		ready_thread(thread);
1c014096:	854a                	mv	a0,s2
1c014098:	08092023          	sw	zero,128(s2)
1c01409c:	ff6ff0ef          	jal	ra,1c013892 <ready_thread>
1c0140a0:	b71d                	j	1c013fc6 <z_thread_abort+0x62>
	__asm__ volatile ("csrs mstatus, %0"
1c0140a2:	88a1                	andi	s1,s1,8
1c0140a4:	3004a073          	csrs	mstatus,s1
1c0140a8:	bf7d                	j	1c014066 <z_thread_abort+0x102>

1c0140aa <z_impl_k_thread_abort>:
#if !defined(CONFIG_ARCH_HAS_THREAD_ABORT)
void z_impl_k_thread_abort(k_tid_t thread)
{
	SYS_PORT_TRACING_OBJ_FUNC_ENTER(k_thread, abort, thread);

	z_thread_abort(thread);
1c0140aa:	bd6d                	j	1c013f64 <z_thread_abort>

1c0140ac <slice_timeout>:
	return ret;
}

static void slice_timeout(struct _timeout *timeout)
{
	int cpu = ARRAY_INDEX(slice_timeouts, timeout);
1c0140ac:	1c0167b7          	lui	a5,0x1c016
1c0140b0:	38078793          	addi	a5,a5,896 # 1c016380 <slice_timeouts>
1c0140b4:	40f507b3          	sub	a5,a0,a5
1c0140b8:	aaaab737          	lui	a4,0xaaaab
1c0140bc:	aab70713          	addi	a4,a4,-1365 # aaaaaaab <CONFIG_COMMON_LIBC_MALLOC_ARENA_SIZE+0xaaaaaaac>
1c0140c0:	878d                	srai	a5,a5,0x3
1c0140c2:	02e787b3          	mul	a5,a5,a4

	slice_expired[cpu] = true;
1c0140c6:	1c016737          	lui	a4,0x1c016
1c0140ca:	1bc70713          	addi	a4,a4,444 # 1c0161bc <slice_expired>
1c0140ce:	97ba                	add	a5,a5,a4
1c0140d0:	4705                	li	a4,1
1c0140d2:	00e78023          	sb	a4,0(a5)
	 * for a different CPU.
	 */
	if (cpu != _current_cpu->id) {
		flag_ipi(IPI_CPU_MASK(cpu));
	}
}
1c0140d6:	8082                	ret

1c0140d8 <thread_is_sliceable>:
		&& !z_is_idle_thread_object(thread);
1c0140d8:	00e55703          	lhu	a4,14(a0)
1c0140dc:	07f00793          	li	a5,127
1c0140e0:	02e7ee63          	bltu	a5,a4,1c01411c <thread_is_sliceable+0x44>
	int ret = slice_ticks;
1c0140e4:	1c0167b7          	lui	a5,0x1c016
1c0140e8:	1747a783          	lw	a5,372(a5) # 1c016174 <slice_ticks>
		&& slice_time(thread) != 0
1c0140ec:	c78d                	beqz	a5,1c014116 <thread_is_sliceable+0x3e>
		&& !z_is_prio_higher(thread->base.prio, slice_max_prio)
1c0140ee:	1c0167b7          	lui	a5,0x1c016
1c0140f2:	1c07a703          	lw	a4,448(a5) # 1c0161c0 <slice_max_prio>
1c0140f6:	00e50683          	lb	a3,14(a0)
		&& !z_is_idle_thread_object(thread);
1c0140fa:	4781                	li	a5,0
		&& !z_is_prio_higher(thread->base.prio, slice_max_prio)
1c0140fc:	00e6cd63          	blt	a3,a4,1c014116 <thread_is_sliceable+0x3e>
		&& !z_is_thread_prevented_from_running(thread)
1c014100:	00d54703          	lbu	a4,13(a0)
1c014104:	8b7d                	andi	a4,a4,31
1c014106:	eb01                	bnez	a4,1c014116 <thread_is_sliceable+0x3e>
		&& !z_is_idle_thread_object(thread);
1c014108:	1c0167b7          	lui	a5,0x1c016
1c01410c:	1d078793          	addi	a5,a5,464 # 1c0161d0 <z_idle_threads>
1c014110:	8d1d                	sub	a0,a0,a5
1c014112:	00a037b3          	snez	a5,a0
}
1c014116:	0017f513          	andi	a0,a5,1
1c01411a:	8082                	ret
		&& !z_is_idle_thread_object(thread);
1c01411c:	4781                	li	a5,0
1c01411e:	bfe5                	j	1c014116 <thread_is_sliceable+0x3e>

1c014120 <z_reset_time_slice>:

void z_reset_time_slice(struct k_thread *thread)
{
1c014120:	1141                	addi	sp,sp,-16
	int cpu = _current_cpu->id;
1c014122:	1c0167b7          	lui	a5,0x1c016
{
1c014126:	c226                	sw	s1,4(sp)
	int cpu = _current_cpu->id;
1c014128:	4dc7c483          	lbu	s1,1244(a5) # 1c0164dc <_kernel+0x10>
{
1c01412c:	c422                	sw	s0,8(sp)

	z_abort_timeout(&slice_timeouts[cpu]);
1c01412e:	4461                	li	s0,24
1c014130:	02848433          	mul	s0,s1,s0
1c014134:	1c0167b7          	lui	a5,0x1c016
1c014138:	38078793          	addi	a5,a5,896 # 1c016380 <slice_timeouts>
{
1c01413c:	c04a                	sw	s2,0(sp)
1c01413e:	892a                	mv	s2,a0
1c014140:	c606                	sw	ra,12(sp)
	z_abort_timeout(&slice_timeouts[cpu]);
1c014142:	943e                	add	s0,s0,a5
1c014144:	8522                	mv	a0,s0
1c014146:	2c49                	jal	1c0143d8 <z_abort_timeout>
	slice_expired[cpu] = false;
1c014148:	1c0167b7          	lui	a5,0x1c016
1c01414c:	1bc78793          	addi	a5,a5,444 # 1c0161bc <slice_expired>
1c014150:	94be                	add	s1,s1,a5
	if (thread_is_sliceable(thread)) {
1c014152:	854a                	mv	a0,s2
	slice_expired[cpu] = false;
1c014154:	00048023          	sb	zero,0(s1)
	if (thread_is_sliceable(thread)) {
1c014158:	3741                	jal	1c0140d8 <thread_is_sliceable>
1c01415a:	c11d                	beqz	a0,1c014180 <z_reset_time_slice+0x60>
	int ret = slice_ticks;
1c01415c:	1c0167b7          	lui	a5,0x1c016
		z_add_timeout(&slice_timeouts[cpu], slice_timeout,
			      K_TICKS(slice_time(thread) - 1));
1c014160:	1747a603          	lw	a2,372(a5) # 1c016174 <slice_ticks>
		z_add_timeout(&slice_timeouts[cpu], slice_timeout,
1c014164:	8522                	mv	a0,s0
	}
}
1c014166:	4422                	lw	s0,8(sp)
1c014168:	40b2                	lw	ra,12(sp)
1c01416a:	4492                	lw	s1,4(sp)
1c01416c:	4902                	lw	s2,0(sp)
			      K_TICKS(slice_time(thread) - 1));
1c01416e:	167d                	addi	a2,a2,-1
		z_add_timeout(&slice_timeouts[cpu], slice_timeout,
1c014170:	1c0145b7          	lui	a1,0x1c014
1c014174:	41f65693          	srai	a3,a2,0x1f
1c014178:	0ac58593          	addi	a1,a1,172 # 1c0140ac <slice_timeout>
}
1c01417c:	0141                	addi	sp,sp,16
		z_add_timeout(&slice_timeouts[cpu], slice_timeout,
1c01417e:	a201                	j	1c01427e <z_add_timeout>
}
1c014180:	40b2                	lw	ra,12(sp)
1c014182:	4422                	lw	s0,8(sp)
1c014184:	4492                	lw	s1,4(sp)
1c014186:	4902                	lw	s2,0(sp)
1c014188:	0141                	addi	sp,sp,16
1c01418a:	8082                	ret

1c01418c <z_time_slice>:
}
#endif

/* Called out of each timer interrupt */
void z_time_slice(void)
{
1c01418c:	1141                	addi	sp,sp,-16
1c01418e:	c606                	sw	ra,12(sp)
1c014190:	c422                	sw	s0,8(sp)
1c014192:	c226                	sw	s1,4(sp)
	__asm__ volatile ("csrrc %0, mstatus, %1"
1c014194:	300474f3          	csrrci	s1,mstatus,8
		return;
	}
	pending_current = NULL;
#endif

	if (slice_expired[_current_cpu->id] && thread_is_sliceable(curr)) {
1c014198:	1c0167b7          	lui	a5,0x1c016
1c01419c:	4cc78793          	addi	a5,a5,1228 # 1c0164cc <_kernel>
1c0141a0:	0107c703          	lbu	a4,16(a5)
1c0141a4:	1c0166b7          	lui	a3,0x1c016
1c0141a8:	1bc68693          	addi	a3,a3,444 # 1c0161bc <slice_expired>
1c0141ac:	9736                	add	a4,a4,a3
1c0141ae:	00074703          	lbu	a4,0(a4)
1c0141b2:	cf11                	beqz	a4,1c0141ce <z_time_slice+0x42>
	struct k_thread *curr = _current;
1c0141b4:	4780                	lw	s0,8(a5)
	if (slice_expired[_current_cpu->id] && thread_is_sliceable(curr)) {
1c0141b6:	8522                	mv	a0,s0
1c0141b8:	3705                	jal	1c0140d8 <thread_is_sliceable>
1c0141ba:	c911                	beqz	a0,1c0141ce <z_time_slice+0x42>
			k_spin_unlock(&_sched_spinlock, key);
			curr->base.slice_expired(curr, curr->base.slice_data);
			key = k_spin_lock(&_sched_spinlock);
		}
#endif
		if (!z_is_thread_prevented_from_running(curr)) {
1c0141bc:	00d44783          	lbu	a5,13(s0)
1c0141c0:	8bfd                	andi	a5,a5,31
1c0141c2:	e781                	bnez	a5,1c0141ca <z_time_slice+0x3e>
			move_thread_to_end_of_prio_q(curr);
1c0141c4:	8522                	mv	a0,s0
1c0141c6:	8cbff0ef          	jal	ra,1c013a90 <move_thread_to_end_of_prio_q>
		}
		z_reset_time_slice(curr);
1c0141ca:	8522                	mv	a0,s0
1c0141cc:	3f91                	jal	1c014120 <z_reset_time_slice>
	__asm__ volatile ("csrs mstatus, %0"
1c0141ce:	88a1                	andi	s1,s1,8
1c0141d0:	3004a073          	csrs	mstatus,s1
	}
	k_spin_unlock(&_sched_spinlock, key);
}
1c0141d4:	40b2                	lw	ra,12(sp)
1c0141d6:	4422                	lw	s0,8(sp)
1c0141d8:	4492                	lw	s1,4(sp)
1c0141da:	0141                	addi	sp,sp,16
1c0141dc:	8082                	ret

1c0141de <first>:
	return list->head == list;
1c0141de:	1c0167b7          	lui	a5,0x1c016
1c0141e2:	17878793          	addi	a5,a5,376 # 1c016178 <timeout_list>
1c0141e6:	4388                	lw	a0,0(a5)
	return sys_dlist_is_empty(list) ? NULL : list->head;
1c0141e8:	00f51363          	bne	a0,a5,1c0141ee <first+0x10>
1c0141ec:	4501                	li	a0,0
static struct _timeout *first(void)
{
	sys_dnode_t *t = sys_dlist_peek_head(&timeout_list);

	return (t == NULL) ? NULL : CONTAINER_OF(t, struct _timeout, node);
}
1c0141ee:	8082                	ret

1c0141f0 <next_timeout>:
	 */
	return announce_remaining == 0 ? sys_clock_elapsed() : 0U;
}

static int32_t next_timeout(int32_t ticks_elapsed)
{
1c0141f0:	1141                	addi	sp,sp,-16
1c0141f2:	c422                	sw	s0,8(sp)
1c0141f4:	c606                	sw	ra,12(sp)
1c0141f6:	842a                	mv	s0,a0
	struct _timeout *to = first();
1c0141f8:	37dd                	jal	1c0141de <first>
	int32_t ret;

	if ((to == NULL) ||
1c0141fa:	c51d                	beqz	a0,1c014228 <next_timeout+0x38>
	    ((int64_t)(to->dticks - ticks_elapsed) > (int64_t)INT_MAX)) {
1c0141fc:	4918                	lw	a4,16(a0)
1c0141fe:	495c                	lw	a5,20(a0)
1c014200:	41f45693          	srai	a3,s0,0x1f
1c014204:	40870533          	sub	a0,a4,s0
1c014208:	00a73733          	sltu	a4,a4,a0
1c01420c:	8f95                	sub	a5,a5,a3
1c01420e:	8f99                	sub	a5,a5,a4
	if ((to == NULL) ||
1c014210:	00f04c63          	bgtz	a5,1c014228 <next_timeout+0x38>
1c014214:	e399                	bnez	a5,1c01421a <next_timeout+0x2a>
1c014216:	00054963          	bltz	a0,1c014228 <next_timeout+0x38>
		ret = SYS_CLOCK_MAX_WAIT;
	} else {
		ret = MAX(0, to->dticks - ticks_elapsed);
1c01421a:	0007d363          	bgez	a5,1c014220 <next_timeout+0x30>
1c01421e:	4501                	li	a0,0
	}

	return ret;
}
1c014220:	40b2                	lw	ra,12(sp)
1c014222:	4422                	lw	s0,8(sp)
1c014224:	0141                	addi	sp,sp,16
1c014226:	8082                	ret
		ret = SYS_CLOCK_MAX_WAIT;
1c014228:	80000537          	lui	a0,0x80000
1c01422c:	157d                	addi	a0,a0,-1 # 7fffffff <CONFIG_COMMON_LIBC_MALLOC_ARENA_SIZE+0x80000000>
	return ret;
1c01422e:	bfcd                	j	1c014220 <next_timeout+0x30>

1c014230 <elapsed>:
	return announce_remaining == 0 ? sys_clock_elapsed() : 0U;
1c014230:	1c0167b7          	lui	a5,0x1c016
1c014234:	1c47a783          	lw	a5,452(a5) # 1c0161c4 <announce_remaining>
1c014238:	e399                	bnez	a5,1c01423e <elapsed+0xe>
1c01423a:	cf2fd06f          	j	1c01172c <sys_clock_elapsed>
}
1c01423e:	4501                	li	a0,0
1c014240:	8082                	ret

1c014242 <remove_timeout>:
	return (node != NULL) ? sys_dlist_peek_next_no_check(list, node) : NULL;
1c014242:	c50d                	beqz	a0,1c01426c <remove_timeout+0x2a>
	return (node == list->tail) ? NULL : node->next;
1c014244:	1c0167b7          	lui	a5,0x1c016
1c014248:	17878793          	addi	a5,a5,376 # 1c016178 <timeout_list>
1c01424c:	43dc                	lw	a5,4(a5)
1c01424e:	00f50f63          	beq	a0,a5,1c01426c <remove_timeout+0x2a>
1c014252:	4118                	lw	a4,0(a0)
	if (next(t) != NULL) {
1c014254:	cf01                	beqz	a4,1c01426c <remove_timeout+0x2a>
		next(t)->dticks += t->dticks;
1c014256:	4b1c                	lw	a5,16(a4)
1c014258:	4914                	lw	a3,16(a0)
1c01425a:	494c                	lw	a1,20(a0)
1c01425c:	4b50                	lw	a2,20(a4)
1c01425e:	96be                	add	a3,a3,a5
1c014260:	00f6b7b3          	sltu	a5,a3,a5
1c014264:	962e                	add	a2,a2,a1
1c014266:	97b2                	add	a5,a5,a2
1c014268:	cb14                	sw	a3,16(a4)
1c01426a:	cb5c                	sw	a5,20(a4)
	sys_dnode_t *const prev = node->prev;
1c01426c:	4158                	lw	a4,4(a0)
	sys_dnode_t *const next = node->next;
1c01426e:	411c                	lw	a5,0(a0)
	prev->next = next;
1c014270:	c31c                	sw	a5,0(a4)
	next->prev = prev;
1c014272:	c3d8                	sw	a4,4(a5)
	node->next = NULL;
1c014274:	00052023          	sw	zero,0(a0)
	node->prev = NULL;
1c014278:	00052223          	sw	zero,4(a0)
}
1c01427c:	8082                	ret

1c01427e <z_add_timeout>:

k_ticks_t z_add_timeout(struct _timeout *to, _timeout_func_t fn, k_timeout_t timeout)
{
1c01427e:	7179                	addi	sp,sp,-48
1c014280:	d422                	sw	s0,40(sp)
1c014282:	d226                	sw	s1,36(sp)
1c014284:	d04a                	sw	s2,32(sp)
1c014286:	cc52                	sw	s4,24(sp)
1c014288:	c85a                	sw	s6,16(sp)
1c01428a:	d606                	sw	ra,44(sp)
1c01428c:	ce4e                	sw	s3,28(sp)
1c01428e:	ca56                	sw	s5,20(sp)
1c014290:	c65e                	sw	s7,12(sp)
	k_ticks_t ticks = 0;

	if (K_TIMEOUT_EQ(timeout, K_FOREVER)) {
1c014292:	57fd                	li	a5,-1
{
1c014294:	842a                	mv	s0,a0
1c014296:	84b2                	mv	s1,a2
1c014298:	8b36                	mv	s6,a3
1c01429a:	8a32                	mv	s4,a2
1c01429c:	8936                	mv	s2,a3
	if (K_TIMEOUT_EQ(timeout, K_FOREVER)) {
1c01429e:	00f61463          	bne	a2,a5,1c0142a6 <z_add_timeout+0x28>
1c0142a2:	12c68863          	beq	a3,a2,1c0143d2 <z_add_timeout+0x154>
#ifdef CONFIG_KERNEL_COHERENCE
	__ASSERT_NO_MSG(arch_mem_coherent(to));
#endif /* CONFIG_KERNEL_COHERENCE */

	__ASSERT(!sys_dnode_is_linked(&to->node), "");
	to->fn = fn;
1c0142a6:	c40c                	sw	a1,8(s0)
	__asm__ volatile ("csrrc %0, mstatus, %1"
1c0142a8:	300479f3          	csrrci	s3,mstatus,8
	K_SPINLOCK(&timeout_lock) {
		struct _timeout *t;
		int32_t ticks_elapsed;
		bool has_elapsed = false;

		if (Z_IS_TIMEOUT_RELATIVE(timeout)) {
1c0142ac:	1c016bb7          	lui	s7,0x1c016
1c0142b0:	06094063          	bltz	s2,1c014310 <z_add_timeout+0x92>
			ticks_elapsed = elapsed();
1c0142b4:	3fb5                	jal	1c014230 <elapsed>
			has_elapsed = true;
			to->dticks = timeout.ticks + 1 + ticks_elapsed;
1c0142b6:	00148793          	addi	a5,s1,1
1c0142ba:	0097b4b3          	sltu	s1,a5,s1
1c0142be:	41f55713          	srai	a4,a0,0x1f
			ticks = curr_tick + to->dticks;
1c0142c2:	1a0baa03          	lw	s4,416(s7) # 1c0161a0 <curr_tick>
			to->dticks = timeout.ticks + 1 + ticks_elapsed;
1c0142c6:	94da                	add	s1,s1,s6
1c0142c8:	00a78933          	add	s2,a5,a0
1c0142cc:	94ba                	add	s1,s1,a4
			ticks = curr_tick + to->dticks;
1c0142ce:	1a4ba703          	lw	a4,420(s7)
			to->dticks = timeout.ticks + 1 + ticks_elapsed;
1c0142d2:	00f937b3          	sltu	a5,s2,a5
1c0142d6:	97a6                	add	a5,a5,s1
			ticks = curr_tick + to->dticks;
1c0142d8:	9a4a                	add	s4,s4,s2
			to->dticks = timeout.ticks + 1 + ticks_elapsed;
1c0142da:	01242823          	sw	s2,16(s0)
1c0142de:	c85c                	sw	a5,20(s0)
			ticks = curr_tick + to->dticks;
1c0142e0:	012a3933          	sltu	s2,s4,s2
1c0142e4:	97ba                	add	a5,a5,a4
			ticks_elapsed = elapsed();
1c0142e6:	8aaa                	mv	s5,a0
			ticks = curr_tick + to->dticks;
1c0142e8:	993e                	add	s2,s2,a5
			has_elapsed = true;
1c0142ea:	4485                	li	s1,1

			to->dticks = MAX(1, dticks);
			ticks = timeout.ticks;
		}

		for (t = first(); t != NULL; t = next(t)) {
1c0142ec:	3dcd                	jal	1c0141de <first>
1c0142ee:	87aa                	mv	a5,a0
	return (node == list->tail) ? NULL : node->next;
1c0142f0:	1c016537          	lui	a0,0x1c016
1c0142f4:	17850713          	addi	a4,a0,376 # 1c016178 <timeout_list>
1c0142f8:	00472803          	lw	a6,4(a4)
1c0142fc:	17850513          	addi	a0,a0,376
1c014300:	e7a9                	bnez	a5,1c01434a <z_add_timeout+0xcc>
	node->next = list;
1c014302:	c008                	sw	a0,0(s0)
	node->prev = tail;
1c014304:	01042223          	sw	a6,4(s0)
	tail->next = node;
1c014308:	00882023          	sw	s0,0(a6)
	list->tail = node;
1c01430c:	c140                	sw	s0,4(a0)
}
1c01430e:	a0ad                	j	1c014378 <z_add_timeout+0xfa>
			k_ticks_t dticks = Z_TICK_ABS(timeout.ticks) - curr_tick;
1c014310:	1a0ba703          	lw	a4,416(s7)
1c014314:	1a4ba783          	lw	a5,420(s7)
1c014318:	56f9                	li	a3,-2
1c01431a:	40e68733          	sub	a4,a3,a4
1c01431e:	00e6b6b3          	sltu	a3,a3,a4
1c014322:	fff7c793          	not	a5,a5
1c014326:	8f95                	sub	a5,a5,a3
1c014328:	409704b3          	sub	s1,a4,s1
1c01432c:	00973733          	sltu	a4,a4,s1
1c014330:	416787b3          	sub	a5,a5,s6
			to->dticks = MAX(1, dticks);
1c014334:	8f99                	sub	a5,a5,a4
1c014336:	00f04663          	bgtz	a5,1c014342 <z_add_timeout+0xc4>
1c01433a:	e391                	bnez	a5,1c01433e <z_add_timeout+0xc0>
1c01433c:	e099                	bnez	s1,1c014342 <z_add_timeout+0xc4>
1c01433e:	4485                	li	s1,1
1c014340:	4781                	li	a5,0
1c014342:	c804                	sw	s1,16(s0)
1c014344:	c85c                	sw	a5,20(s0)
		bool has_elapsed = false;
1c014346:	4481                	li	s1,0
1c014348:	b755                	j	1c0142ec <z_add_timeout+0x6e>
			if (t->dticks > to->dticks) {
1c01434a:	4bcc                	lw	a1,20(a5)
1c01434c:	4850                	lw	a2,20(s0)
1c01434e:	4b98                	lw	a4,16(a5)
1c014350:	4814                	lw	a3,16(s0)
1c014352:	00b64663          	blt	a2,a1,1c01435e <z_add_timeout+0xe0>
1c014356:	06c59263          	bne	a1,a2,1c0143ba <z_add_timeout+0x13c>
1c01435a:	06e6f063          	bgeu	a3,a4,1c0143ba <z_add_timeout+0x13c>
				t->dticks -= to->dticks;
1c01435e:	40d706b3          	sub	a3,a4,a3
1c014362:	00d73733          	sltu	a4,a4,a3
1c014366:	8d91                	sub	a1,a1,a2
1c014368:	8d99                	sub	a1,a1,a4
	sys_dnode_t *const prev = successor->prev;
1c01436a:	43d8                	lw	a4,4(a5)
1c01436c:	cb94                	sw	a3,16(a5)
1c01436e:	cbcc                	sw	a1,20(a5)
	node->prev = prev;
1c014370:	c058                	sw	a4,4(s0)
	node->next = successor;
1c014372:	c01c                	sw	a5,0(s0)
	prev->next = node;
1c014374:	c300                	sw	s0,0(a4)
	successor->prev = node;
1c014376:	c3c0                	sw	s0,4(a5)

		if (t == NULL) {
			sys_dlist_append(&timeout_list, &to->node);
		}

		if (to == first() && announce_remaining == 0) {
1c014378:	359d                	jal	1c0141de <first>
1c01437a:	00a41f63          	bne	s0,a0,1c014398 <z_add_timeout+0x11a>
1c01437e:	1c0167b7          	lui	a5,0x1c016
1c014382:	1c47a783          	lw	a5,452(a5) # 1c0161c4 <announce_remaining>
1c014386:	eb89                	bnez	a5,1c014398 <z_add_timeout+0x11a>
			if (!has_elapsed) {
1c014388:	e099                	bnez	s1,1c01438e <z_add_timeout+0x110>
				/* In case of absolute timeout that is first to expire
				 * elapsed need to be read from the system clock.
				 */
				ticks_elapsed = elapsed();
1c01438a:	355d                	jal	1c014230 <elapsed>
1c01438c:	8aaa                	mv	s5,a0
			}
			sys_clock_set_timeout(next_timeout(ticks_elapsed), false);
1c01438e:	8556                	mv	a0,s5
1c014390:	3585                	jal	1c0141f0 <next_timeout>
1c014392:	4581                	li	a1,0
1c014394:	fb3fe0ef          	jal	ra,1c013346 <sys_clock_set_timeout>
	__asm__ volatile ("csrs mstatus, %0"
1c014398:	0089f993          	andi	s3,s3,8
1c01439c:	3009a073          	csrs	mstatus,s3
		}
	}

	return ticks;
}
1c0143a0:	50b2                	lw	ra,44(sp)
1c0143a2:	5422                	lw	s0,40(sp)
1c0143a4:	5492                	lw	s1,36(sp)
1c0143a6:	49f2                	lw	s3,28(sp)
1c0143a8:	4ad2                	lw	s5,20(sp)
1c0143aa:	4b42                	lw	s6,16(sp)
1c0143ac:	4bb2                	lw	s7,12(sp)
1c0143ae:	8552                	mv	a0,s4
1c0143b0:	85ca                	mv	a1,s2
1c0143b2:	4a62                	lw	s4,24(sp)
1c0143b4:	5902                	lw	s2,32(sp)
1c0143b6:	6145                	addi	sp,sp,48
1c0143b8:	8082                	ret
			to->dticks -= t->dticks;
1c0143ba:	40e68733          	sub	a4,a3,a4
1c0143be:	00e6b6b3          	sltu	a3,a3,a4
1c0143c2:	8e0d                	sub	a2,a2,a1
1c0143c4:	8e15                	sub	a2,a2,a3
1c0143c6:	c818                	sw	a4,16(s0)
1c0143c8:	c850                	sw	a2,20(s0)
	return (node == list->tail) ? NULL : node->next;
1c0143ca:	f3078ce3          	beq	a5,a6,1c014302 <z_add_timeout+0x84>
1c0143ce:	439c                	lw	a5,0(a5)
1c0143d0:	bf05                	j	1c014300 <z_add_timeout+0x82>
		return 0;
1c0143d2:	4a01                	li	s4,0
1c0143d4:	4901                	li	s2,0
1c0143d6:	b7e9                	j	1c0143a0 <z_add_timeout+0x122>

1c0143d8 <z_abort_timeout>:

int z_abort_timeout(struct _timeout *to)
{
1c0143d8:	1141                	addi	sp,sp,-16
1c0143da:	c606                	sw	ra,12(sp)
1c0143dc:	c422                	sw	s0,8(sp)
1c0143de:	c226                	sw	s1,4(sp)
1c0143e0:	c04a                	sw	s2,0(sp)
	__asm__ volatile ("csrrc %0, mstatus, %1"
1c0143e2:	300474f3          	csrrci	s1,mstatus,8
	int ret = -EINVAL;

	K_SPINLOCK(&timeout_lock) {
		if (sys_dnode_is_linked(&to->node)) {
1c0143e6:	411c                	lw	a5,0(a0)
1c0143e8:	cf85                	beqz	a5,1c014420 <z_abort_timeout+0x48>
1c0143ea:	842a                	mv	s0,a0
			bool is_first = (to == first());
1c0143ec:	3bcd                	jal	1c0141de <first>
1c0143ee:	892a                	mv	s2,a0

			remove_timeout(to);
1c0143f0:	8522                	mv	a0,s0
1c0143f2:	3d81                	jal	1c014242 <remove_timeout>
			to->dticks = TIMEOUT_DTICKS_ABORTED;
1c0143f4:	4701                	li	a4,0
1c0143f6:	800007b7          	lui	a5,0x80000
1c0143fa:	c818                	sw	a4,16(s0)
1c0143fc:	c85c                	sw	a5,20(s0)
			ret = 0;
			if (is_first) {
1c0143fe:	00891763          	bne	s2,s0,1c01440c <z_abort_timeout+0x34>
				sys_clock_set_timeout(next_timeout(elapsed()), false);
1c014402:	353d                	jal	1c014230 <elapsed>
1c014404:	33f5                	jal	1c0141f0 <next_timeout>
1c014406:	4581                	li	a1,0
1c014408:	f3ffe0ef          	jal	ra,1c013346 <sys_clock_set_timeout>
			ret = 0;
1c01440c:	4501                	li	a0,0
	__asm__ volatile ("csrs mstatus, %0"
1c01440e:	88a1                	andi	s1,s1,8
1c014410:	3004a073          	csrs	mstatus,s1
			}
		}
	}

	return ret;
}
1c014414:	40b2                	lw	ra,12(sp)
1c014416:	4422                	lw	s0,8(sp)
1c014418:	4492                	lw	s1,4(sp)
1c01441a:	4902                	lw	s2,0(sp)
1c01441c:	0141                	addi	sp,sp,16
1c01441e:	8082                	ret
	int ret = -EINVAL;
1c014420:	5529                	li	a0,-22
1c014422:	b7f5                	j	1c01440e <z_abort_timeout+0x36>

1c014424 <sys_clock_announce>:
	}
	return ret;
}

void sys_clock_announce(int32_t ticks)
{
1c014424:	7179                	addi	sp,sp,-48
1c014426:	d606                	sw	ra,44(sp)
1c014428:	d422                	sw	s0,40(sp)
1c01442a:	d226                	sw	s1,36(sp)
1c01442c:	d04a                	sw	s2,32(sp)
1c01442e:	ce4e                	sw	s3,28(sp)
	__asm__ volatile ("csrrc %0, mstatus, %1"
1c014430:	300474f3          	csrrci	s1,mstatus,8
		announce_remaining += ticks;
		k_spin_unlock(&timeout_lock, key);
		return;
	}

	announce_remaining = ticks;
1c014434:	1c0169b7          	lui	s3,0x1c016
1c014438:	1ca9a223          	sw	a0,452(s3) # 1c0161c4 <announce_remaining>
	for (t = first();
	     (t != NULL) && (t->dticks <= announce_remaining);
	     t = first()) {
		int dt = t->dticks;

		curr_tick += dt;
1c01443c:	1c016937          	lui	s2,0x1c016
	for (t = first();
1c014440:	d9fff0ef          	jal	ra,1c0141de <first>
	     (t != NULL) && (t->dticks <= announce_remaining);
1c014444:	1c49a783          	lw	a5,452(s3)
		curr_tick += dt;
1c014448:	1a092703          	lw	a4,416(s2) # 1c0161a0 <curr_tick>
1c01444c:	1a492803          	lw	a6,420(s2)
			  : "r" (key & MSTATUS_IEN)
1c014450:	88a1                	andi	s1,s1,8
1c014452:	41f7d613          	srai	a2,a5,0x1f
	     (t != NULL) && (t->dticks <= announce_remaining);
1c014456:	c10d                	beqz	a0,1c014478 <sys_clock_announce+0x54>
1c014458:	4954                	lw	a3,20(a0)
1c01445a:	4900                	lw	s0,16(a0)
1c01445c:	00d64663          	blt	a2,a3,1c014468 <sys_clock_announce+0x44>
1c014460:	04c69763          	bne	a3,a2,1c0144ae <sys_clock_announce+0x8a>
1c014464:	0487f563          	bgeu	a5,s0,1c0144ae <sys_clock_announce+0x8a>
		key = k_spin_lock(&timeout_lock);
		announce_remaining -= dt;
	}

	if (t != NULL) {
		t->dticks -= announce_remaining;
1c014468:	40f405b3          	sub	a1,s0,a5
1c01446c:	00b43433          	sltu	s0,s0,a1
1c014470:	8e91                	sub	a3,a3,a2
1c014472:	8e81                	sub	a3,a3,s0
1c014474:	c90c                	sw	a1,16(a0)
1c014476:	c954                	sw	a3,20(a0)
	}

	curr_tick += announce_remaining;
1c014478:	973e                	add	a4,a4,a5
1c01447a:	00f737b3          	sltu	a5,a4,a5
1c01447e:	9642                	add	a2,a2,a6
1c014480:	97b2                	add	a5,a5,a2
	announce_remaining = 0;

	sys_clock_set_timeout(next_timeout(0), false);
1c014482:	4501                	li	a0,0
	curr_tick += announce_remaining;
1c014484:	1ae92023          	sw	a4,416(s2)
1c014488:	1af92223          	sw	a5,420(s2)
	announce_remaining = 0;
1c01448c:	1c09a223          	sw	zero,452(s3)
	sys_clock_set_timeout(next_timeout(0), false);
1c014490:	d61ff0ef          	jal	ra,1c0141f0 <next_timeout>
1c014494:	4581                	li	a1,0
1c014496:	eb1fe0ef          	jal	ra,1c013346 <sys_clock_set_timeout>
	__asm__ volatile ("csrs mstatus, %0"
1c01449a:	3004a073          	csrs	mstatus,s1
	k_spin_unlock(&timeout_lock, key);

#ifdef CONFIG_TIMESLICING
	z_time_slice();
#endif /* CONFIG_TIMESLICING */
}
1c01449e:	5422                	lw	s0,40(sp)
1c0144a0:	50b2                	lw	ra,44(sp)
1c0144a2:	5492                	lw	s1,36(sp)
1c0144a4:	5902                	lw	s2,32(sp)
1c0144a6:	49f2                	lw	s3,28(sp)
1c0144a8:	6145                	addi	sp,sp,48
	z_time_slice();
1c0144aa:	ce3ff06f          	j	1c01418c <z_time_slice>
		curr_tick += dt;
1c0144ae:	9722                	add	a4,a4,s0
1c0144b0:	41f45693          	srai	a3,s0,0x1f
1c0144b4:	96c2                	add	a3,a3,a6
1c0144b6:	008737b3          	sltu	a5,a4,s0
1c0144ba:	97b6                	add	a5,a5,a3
1c0144bc:	1af92223          	sw	a5,420(s2)
		t->dticks = 0;
1c0144c0:	4801                	li	a6,0
1c0144c2:	4781                	li	a5,0
1c0144c4:	c91c                	sw	a5,16(a0)
1c0144c6:	01052a23          	sw	a6,20(a0)
		curr_tick += dt;
1c0144ca:	1ae92023          	sw	a4,416(s2)
		remove_timeout(t);
1c0144ce:	c62a                	sw	a0,12(sp)
1c0144d0:	d73ff0ef          	jal	ra,1c014242 <remove_timeout>
1c0144d4:	3004a073          	csrs	mstatus,s1
		t->fn(t);
1c0144d8:	4532                	lw	a0,12(sp)
1c0144da:	451c                	lw	a5,8(a0)
1c0144dc:	9782                	jalr	a5
	__asm__ volatile ("csrrc %0, mstatus, %1"
1c0144de:	300474f3          	csrrci	s1,mstatus,8
		announce_remaining -= dt;
1c0144e2:	1c49a783          	lw	a5,452(s3)
1c0144e6:	8f81                	sub	a5,a5,s0
1c0144e8:	1cf9a223          	sw	a5,452(s3)
	     t = first()) {
1c0144ec:	cf3ff0ef          	jal	ra,1c0141de <first>
1c0144f0:	bf91                	j	1c014444 <sys_clock_announce+0x20>

1c0144f2 <sys_clock_tick_get_32>:
#ifdef CONFIG_TICKLESS_KERNEL
	return (uint32_t)sys_clock_tick_get();
#else
	return (uint32_t)curr_tick;
#endif /* CONFIG_TICKLESS_KERNEL */
}
1c0144f2:	1c0167b7          	lui	a5,0x1c016
1c0144f6:	1a07a503          	lw	a0,416(a5) # 1c0161a0 <curr_tick>
1c0144fa:	8082                	ret

1c0144fc <boot_banner>:
	  */
	printk("\x1b[3J\x1b[2J\x1b[H");
#endif /* CONFIG_BOOT_CLEAR_SCREEN */

#ifdef CONFIG_BOOT_BANNER
	printk("*** " CONFIG_BOOT_BANNER_STRING " " BANNER_VERSION BANNER_POSTFIX " ***\n");
1c0144fc:	1c015537          	lui	a0,0x1c015
1c014500:	65050513          	addi	a0,a0,1616 # 1c015650 <levels.0+0xb0>
1c014504:	96cfd06f          	j	1c011670 <printk>

1c014508 <memcpy>:
1c014508:	00050313          	mv	t1,a0
1c01450c:	00060e63          	beqz	a2,1c014528 <memcpy+0x20>
1c014510:	00058383          	lb	t2,0(a1)
1c014514:	00730023          	sb	t2,0(t1)
1c014518:	fff60613          	addi	a2,a2,-1
1c01451c:	00130313          	addi	t1,t1,1
1c014520:	00158593          	addi	a1,a1,1
1c014524:	fe0616e3          	bnez	a2,1c014510 <memcpy+0x8>
1c014528:	00008067          	ret

1c01452c <memset>:
1c01452c:	00050313          	mv	t1,a0
1c014530:	00060a63          	beqz	a2,1c014544 <memset+0x18>
1c014534:	00b30023          	sb	a1,0(t1)
1c014538:	fff60613          	addi	a2,a2,-1
1c01453c:	00130313          	addi	t1,t1,1
1c014540:	fe061ae3          	bnez	a2,1c014534 <memset+0x8>
1c014544:	00008067          	ret
